ARM GAS  C:\Users\labadmin\AppData\Local\Temp\cclsiJVv.s 			page 1


   1              		.syntax unified
   2              		.cpu cortex-m3
   3              		.fpu softvfp
   4              		.eabi_attribute 20, 1
   5              		.eabi_attribute 21, 1
   6              		.eabi_attribute 23, 3
   7              		.eabi_attribute 24, 1
   8              		.eabi_attribute 25, 1
   9              		.eabi_attribute 26, 1
  10              		.eabi_attribute 30, 4
  11              		.eabi_attribute 34, 1
  12              		.eabi_attribute 18, 4
  13              		.thumb
  14              		.file	"cyfitter_cfg.c"
  15              		.text
  16              	.Ltext0:
  17              		.cfi_sections	.debug_frame
  18              		.section	.text.SetAnalogRoutingPumps,"ax",%progbits
  19              		.align	1
  20              		.global	SetAnalogRoutingPumps
  21              		.thumb
  22              		.thumb_func
  23              		.type	SetAnalogRoutingPumps, %function
  24              	SetAnalogRoutingPumps:
  25              	.LFB6:
  26              		.file 1 "Generated_Source\\PSoC5\\cyfitter_cfg.c"
   1:Generated_Source\PSoC5/cyfitter_cfg.c **** /*******************************************************************************
   2:Generated_Source\PSoC5/cyfitter_cfg.c **** * File Name: cyfitter_cfg.c
   3:Generated_Source\PSoC5/cyfitter_cfg.c **** * 
   4:Generated_Source\PSoC5/cyfitter_cfg.c **** * PSoC Creator  4.0
   5:Generated_Source\PSoC5/cyfitter_cfg.c **** *
   6:Generated_Source\PSoC5/cyfitter_cfg.c **** * Description:
   7:Generated_Source\PSoC5/cyfitter_cfg.c **** * This file contains device initialization code.
   8:Generated_Source\PSoC5/cyfitter_cfg.c **** * Except for the user defined sections in CyClockStartupError(), this file should not be modified.
   9:Generated_Source\PSoC5/cyfitter_cfg.c **** * This file is automatically generated by PSoC Creator.
  10:Generated_Source\PSoC5/cyfitter_cfg.c **** *
  11:Generated_Source\PSoC5/cyfitter_cfg.c **** ********************************************************************************
  12:Generated_Source\PSoC5/cyfitter_cfg.c **** * Copyright (c) 2007-2016 Cypress Semiconductor.  All rights reserved.
  13:Generated_Source\PSoC5/cyfitter_cfg.c **** * You may use this file only in accordance with the license, terms, conditions, 
  14:Generated_Source\PSoC5/cyfitter_cfg.c **** * disclaimers, and limitations in the end user license agreement accompanying 
  15:Generated_Source\PSoC5/cyfitter_cfg.c **** * the software package with which this file was provided.
  16:Generated_Source\PSoC5/cyfitter_cfg.c **** ********************************************************************************/
  17:Generated_Source\PSoC5/cyfitter_cfg.c **** 
  18:Generated_Source\PSoC5/cyfitter_cfg.c **** #include <string.h>
  19:Generated_Source\PSoC5/cyfitter_cfg.c **** #include "cytypes.h"
  20:Generated_Source\PSoC5/cyfitter_cfg.c **** #include "cydevice_trm.h"
  21:Generated_Source\PSoC5/cyfitter_cfg.c **** #include "cyfitter.h"
  22:Generated_Source\PSoC5/cyfitter_cfg.c **** #include "CyLib.h"
  23:Generated_Source\PSoC5/cyfitter_cfg.c **** #include "cyfitter_cfg.h"
  24:Generated_Source\PSoC5/cyfitter_cfg.c **** #include "cyapicallbacks.h"
  25:Generated_Source\PSoC5/cyfitter_cfg.c **** 
  26:Generated_Source\PSoC5/cyfitter_cfg.c **** #define CY_NEED_CYCLOCKSTARTUPERROR 1
  27:Generated_Source\PSoC5/cyfitter_cfg.c **** 
  28:Generated_Source\PSoC5/cyfitter_cfg.c **** 
  29:Generated_Source\PSoC5/cyfitter_cfg.c **** #if defined(__GNUC__) || defined(__ARMCC_VERSION)
  30:Generated_Source\PSoC5/cyfitter_cfg.c ****     #define CYPACKED 
  31:Generated_Source\PSoC5/cyfitter_cfg.c ****     #define CYPACKED_ATTR __attribute__ ((packed))
ARM GAS  C:\Users\labadmin\AppData\Local\Temp\cclsiJVv.s 			page 2


  32:Generated_Source\PSoC5/cyfitter_cfg.c ****     #define CYALIGNED __attribute__ ((aligned))
  33:Generated_Source\PSoC5/cyfitter_cfg.c ****     #define CY_CFG_UNUSED __attribute__ ((unused))
  34:Generated_Source\PSoC5/cyfitter_cfg.c ****     #ifndef CY_CFG_SECTION
  35:Generated_Source\PSoC5/cyfitter_cfg.c ****         #define CY_CFG_SECTION __attribute__ ((section(".psocinit")))
  36:Generated_Source\PSoC5/cyfitter_cfg.c ****     #endif
  37:Generated_Source\PSoC5/cyfitter_cfg.c ****     
  38:Generated_Source\PSoC5/cyfitter_cfg.c ****     #if defined(__ARMCC_VERSION)
  39:Generated_Source\PSoC5/cyfitter_cfg.c ****         #define CY_CFG_MEMORY_BARRIER() __memory_changed()
  40:Generated_Source\PSoC5/cyfitter_cfg.c ****     #else
  41:Generated_Source\PSoC5/cyfitter_cfg.c ****         #define CY_CFG_MEMORY_BARRIER() __sync_synchronize()
  42:Generated_Source\PSoC5/cyfitter_cfg.c ****     #endif
  43:Generated_Source\PSoC5/cyfitter_cfg.c ****     
  44:Generated_Source\PSoC5/cyfitter_cfg.c **** #elif defined(__ICCARM__)
  45:Generated_Source\PSoC5/cyfitter_cfg.c ****     #include <intrinsics.h>
  46:Generated_Source\PSoC5/cyfitter_cfg.c **** 
  47:Generated_Source\PSoC5/cyfitter_cfg.c ****     #define CYPACKED __packed
  48:Generated_Source\PSoC5/cyfitter_cfg.c ****     #define CYPACKED_ATTR 
  49:Generated_Source\PSoC5/cyfitter_cfg.c ****     #define CYALIGNED _Pragma("data_alignment=4")
  50:Generated_Source\PSoC5/cyfitter_cfg.c ****     #define CY_CFG_UNUSED _Pragma("diag_suppress=Pe177")
  51:Generated_Source\PSoC5/cyfitter_cfg.c ****     #define CY_CFG_SECTION _Pragma("location=\".psocinit\"")
  52:Generated_Source\PSoC5/cyfitter_cfg.c ****     
  53:Generated_Source\PSoC5/cyfitter_cfg.c ****     #define CY_CFG_MEMORY_BARRIER() __DMB()
  54:Generated_Source\PSoC5/cyfitter_cfg.c ****     
  55:Generated_Source\PSoC5/cyfitter_cfg.c **** #else
  56:Generated_Source\PSoC5/cyfitter_cfg.c ****     #error Unsupported toolchain
  57:Generated_Source\PSoC5/cyfitter_cfg.c **** #endif
  58:Generated_Source\PSoC5/cyfitter_cfg.c **** 
  59:Generated_Source\PSoC5/cyfitter_cfg.c **** 
  60:Generated_Source\PSoC5/cyfitter_cfg.c **** CY_CFG_UNUSED
  61:Generated_Source\PSoC5/cyfitter_cfg.c **** static void CYMEMZERO(void *s, size_t n);
  62:Generated_Source\PSoC5/cyfitter_cfg.c **** CY_CFG_UNUSED
  63:Generated_Source\PSoC5/cyfitter_cfg.c **** static void CYMEMZERO(void *s, size_t n)
  64:Generated_Source\PSoC5/cyfitter_cfg.c **** {
  65:Generated_Source\PSoC5/cyfitter_cfg.c **** 	(void)memset(s, 0, n);
  66:Generated_Source\PSoC5/cyfitter_cfg.c **** }
  67:Generated_Source\PSoC5/cyfitter_cfg.c **** CY_CFG_UNUSED
  68:Generated_Source\PSoC5/cyfitter_cfg.c **** static void CYCONFIGCPY(void *dest, const void *src, size_t n);
  69:Generated_Source\PSoC5/cyfitter_cfg.c **** CY_CFG_UNUSED
  70:Generated_Source\PSoC5/cyfitter_cfg.c **** static void CYCONFIGCPY(void *dest, const void *src, size_t n)
  71:Generated_Source\PSoC5/cyfitter_cfg.c **** {
  72:Generated_Source\PSoC5/cyfitter_cfg.c **** 	(void)memcpy(dest, src, n);
  73:Generated_Source\PSoC5/cyfitter_cfg.c **** }
  74:Generated_Source\PSoC5/cyfitter_cfg.c **** CY_CFG_UNUSED
  75:Generated_Source\PSoC5/cyfitter_cfg.c **** static void CYCONFIGCPYCODE(void *dest, const void *src, size_t n);
  76:Generated_Source\PSoC5/cyfitter_cfg.c **** CY_CFG_UNUSED
  77:Generated_Source\PSoC5/cyfitter_cfg.c **** static void CYCONFIGCPYCODE(void *dest, const void *src, size_t n)
  78:Generated_Source\PSoC5/cyfitter_cfg.c **** {
  79:Generated_Source\PSoC5/cyfitter_cfg.c **** 	(void)memcpy(dest, src, n);
  80:Generated_Source\PSoC5/cyfitter_cfg.c **** }
  81:Generated_Source\PSoC5/cyfitter_cfg.c **** 
  82:Generated_Source\PSoC5/cyfitter_cfg.c **** 
  83:Generated_Source\PSoC5/cyfitter_cfg.c **** 
  84:Generated_Source\PSoC5/cyfitter_cfg.c **** 
  85:Generated_Source\PSoC5/cyfitter_cfg.c **** /* Clock startup error codes                                                   */
  86:Generated_Source\PSoC5/cyfitter_cfg.c **** #define CYCLOCKSTART_NO_ERROR    0u
  87:Generated_Source\PSoC5/cyfitter_cfg.c **** #define CYCLOCKSTART_XTAL_ERROR  1u
  88:Generated_Source\PSoC5/cyfitter_cfg.c **** #define CYCLOCKSTART_32KHZ_ERROR 2u
ARM GAS  C:\Users\labadmin\AppData\Local\Temp\cclsiJVv.s 			page 3


  89:Generated_Source\PSoC5/cyfitter_cfg.c **** #define CYCLOCKSTART_PLL_ERROR   3u
  90:Generated_Source\PSoC5/cyfitter_cfg.c **** 
  91:Generated_Source\PSoC5/cyfitter_cfg.c **** 
  92:Generated_Source\PSoC5/cyfitter_cfg.c **** #ifdef CY_NEED_CYCLOCKSTARTUPERROR
  93:Generated_Source\PSoC5/cyfitter_cfg.c **** /*******************************************************************************
  94:Generated_Source\PSoC5/cyfitter_cfg.c **** * Function Name: CyClockStartupError
  95:Generated_Source\PSoC5/cyfitter_cfg.c **** ********************************************************************************
  96:Generated_Source\PSoC5/cyfitter_cfg.c **** * Summary:
  97:Generated_Source\PSoC5/cyfitter_cfg.c **** *  If an error is encountered during clock configuration (crystal startup error,
  98:Generated_Source\PSoC5/cyfitter_cfg.c **** *  PLL lock error, etc.), the system will end up here.  Unless reimplemented by
  99:Generated_Source\PSoC5/cyfitter_cfg.c **** *  the customer, this function will stop in an infinite loop.
 100:Generated_Source\PSoC5/cyfitter_cfg.c **** *
 101:Generated_Source\PSoC5/cyfitter_cfg.c **** * Parameters:
 102:Generated_Source\PSoC5/cyfitter_cfg.c **** *   void
 103:Generated_Source\PSoC5/cyfitter_cfg.c **** *
 104:Generated_Source\PSoC5/cyfitter_cfg.c **** * Return:
 105:Generated_Source\PSoC5/cyfitter_cfg.c **** *   void
 106:Generated_Source\PSoC5/cyfitter_cfg.c **** *
 107:Generated_Source\PSoC5/cyfitter_cfg.c **** *******************************************************************************/
 108:Generated_Source\PSoC5/cyfitter_cfg.c **** CY_CFG_UNUSED
 109:Generated_Source\PSoC5/cyfitter_cfg.c **** static void CyClockStartupError(uint8 errorCode);
 110:Generated_Source\PSoC5/cyfitter_cfg.c **** CY_CFG_UNUSED
 111:Generated_Source\PSoC5/cyfitter_cfg.c **** static void CyClockStartupError(uint8 errorCode)
 112:Generated_Source\PSoC5/cyfitter_cfg.c **** {
 113:Generated_Source\PSoC5/cyfitter_cfg.c ****     /* To remove the compiler warning if errorCode not used.                */
 114:Generated_Source\PSoC5/cyfitter_cfg.c ****     errorCode = errorCode;
 115:Generated_Source\PSoC5/cyfitter_cfg.c **** 
 116:Generated_Source\PSoC5/cyfitter_cfg.c ****     /* If we have a clock startup error (bad MHz crystal, PLL lock, etc.),  */
 117:Generated_Source\PSoC5/cyfitter_cfg.c ****     /* we will end up here to allow the customer to implement something to  */
 118:Generated_Source\PSoC5/cyfitter_cfg.c ****     /* deal with the clock condition.                                       */
 119:Generated_Source\PSoC5/cyfitter_cfg.c **** 
 120:Generated_Source\PSoC5/cyfitter_cfg.c **** #ifdef CY_CFG_CLOCK_STARTUP_ERROR_CALLBACK
 121:Generated_Source\PSoC5/cyfitter_cfg.c **** 	CY_CFG_Clock_Startup_ErrorCallback();
 122:Generated_Source\PSoC5/cyfitter_cfg.c **** #else
 123:Generated_Source\PSoC5/cyfitter_cfg.c **** 	/*  If not using CY_CFG_CLOCK_STARTUP_ERROR_CALLBACK, place your clock startup code here. */
 124:Generated_Source\PSoC5/cyfitter_cfg.c ****     /* `#START CyClockStartupError` */
 125:Generated_Source\PSoC5/cyfitter_cfg.c **** 
 126:Generated_Source\PSoC5/cyfitter_cfg.c **** 
 127:Generated_Source\PSoC5/cyfitter_cfg.c **** 
 128:Generated_Source\PSoC5/cyfitter_cfg.c ****     /* `#END` */
 129:Generated_Source\PSoC5/cyfitter_cfg.c **** 
 130:Generated_Source\PSoC5/cyfitter_cfg.c ****     /* If nothing else, stop here since the clocks have not started         */
 131:Generated_Source\PSoC5/cyfitter_cfg.c ****     /* correctly.                                                           */
 132:Generated_Source\PSoC5/cyfitter_cfg.c ****     while(1) {}
 133:Generated_Source\PSoC5/cyfitter_cfg.c **** #endif /* CY_CFG_CLOCK_STARTUP_ERROR_CALLBACK */ 
 134:Generated_Source\PSoC5/cyfitter_cfg.c **** }
 135:Generated_Source\PSoC5/cyfitter_cfg.c **** #endif
 136:Generated_Source\PSoC5/cyfitter_cfg.c **** 
 137:Generated_Source\PSoC5/cyfitter_cfg.c **** /* IOPINS0_0 Address: CYREG_PRT0_DM0 Size (bytes): 8 */
 138:Generated_Source\PSoC5/cyfitter_cfg.c **** #define BS_IOPINS0_0_VAL ((const uint8 CYFAR *)0x48000000u)
 139:Generated_Source\PSoC5/cyfitter_cfg.c **** 
 140:Generated_Source\PSoC5/cyfitter_cfg.c **** /* IOPINS0_1 Address: CYREG_PRT1_DM0 Size (bytes): 8 */
 141:Generated_Source\PSoC5/cyfitter_cfg.c **** #define BS_IOPINS0_1_VAL ((const uint8 CYFAR *)0x48000008u)
 142:Generated_Source\PSoC5/cyfitter_cfg.c **** 
 143:Generated_Source\PSoC5/cyfitter_cfg.c **** /* IOPINS0_2 Address: CYREG_PRT2_DM0 Size (bytes): 8 */
 144:Generated_Source\PSoC5/cyfitter_cfg.c **** #define BS_IOPINS0_2_VAL ((const uint8 CYFAR *)0x48000010u)
 145:Generated_Source\PSoC5/cyfitter_cfg.c **** 
ARM GAS  C:\Users\labadmin\AppData\Local\Temp\cclsiJVv.s 			page 4


 146:Generated_Source\PSoC5/cyfitter_cfg.c **** 
 147:Generated_Source\PSoC5/cyfitter_cfg.c **** /*******************************************************************************
 148:Generated_Source\PSoC5/cyfitter_cfg.c **** * Function Name: ClockSetup
 149:Generated_Source\PSoC5/cyfitter_cfg.c **** ********************************************************************************
 150:Generated_Source\PSoC5/cyfitter_cfg.c **** *
 151:Generated_Source\PSoC5/cyfitter_cfg.c **** * Summary:
 152:Generated_Source\PSoC5/cyfitter_cfg.c **** *  Performs the initialization of all of the clocks in the device based on the
 153:Generated_Source\PSoC5/cyfitter_cfg.c **** *  settings in the Clock tab of the DWR.  This includes enabling the requested
 154:Generated_Source\PSoC5/cyfitter_cfg.c **** *  clocks and setting the necessary dividers to produce the desired frequency. 
 155:Generated_Source\PSoC5/cyfitter_cfg.c **** *
 156:Generated_Source\PSoC5/cyfitter_cfg.c **** * Parameters:
 157:Generated_Source\PSoC5/cyfitter_cfg.c **** *  void
 158:Generated_Source\PSoC5/cyfitter_cfg.c **** *
 159:Generated_Source\PSoC5/cyfitter_cfg.c **** * Return:
 160:Generated_Source\PSoC5/cyfitter_cfg.c **** *  void
 161:Generated_Source\PSoC5/cyfitter_cfg.c **** *
 162:Generated_Source\PSoC5/cyfitter_cfg.c **** *******************************************************************************/
 163:Generated_Source\PSoC5/cyfitter_cfg.c **** static void ClockSetup(void);
 164:Generated_Source\PSoC5/cyfitter_cfg.c **** static void ClockSetup(void)
 165:Generated_Source\PSoC5/cyfitter_cfg.c **** {
 166:Generated_Source\PSoC5/cyfitter_cfg.c **** 	uint32 timeout;
 167:Generated_Source\PSoC5/cyfitter_cfg.c **** 	uint8 pllLock;
 168:Generated_Source\PSoC5/cyfitter_cfg.c **** 
 169:Generated_Source\PSoC5/cyfitter_cfg.c **** 
 170:Generated_Source\PSoC5/cyfitter_cfg.c **** 	/* Configure ILO based on settings from Clock DWR */
 171:Generated_Source\PSoC5/cyfitter_cfg.c **** 	CY_SET_XTND_REG8((void CYFAR *)(CYREG_SLOWCLK_ILO_CR0), 0x02u);
 172:Generated_Source\PSoC5/cyfitter_cfg.c **** 	CY_SET_XTND_REG8((void CYFAR *)(CYREG_CLKDIST_CR), 0x08u);
 173:Generated_Source\PSoC5/cyfitter_cfg.c **** 
 174:Generated_Source\PSoC5/cyfitter_cfg.c **** 	/* Configure IMO based on settings from Clock DWR */
 175:Generated_Source\PSoC5/cyfitter_cfg.c **** 	CY_SET_XTND_REG8((void CYFAR *)(CYREG_FASTCLK_IMO_CR), 0x03u);
 176:Generated_Source\PSoC5/cyfitter_cfg.c **** 	CY_SET_XTND_REG8((void CYFAR *)(CYREG_IMO_TR1), (CY_GET_XTND_REG8((void CYFAR *)CYREG_FLSHID_CUST_
 177:Generated_Source\PSoC5/cyfitter_cfg.c **** 
 178:Generated_Source\PSoC5/cyfitter_cfg.c **** 	/* Configure PLL based on settings from Clock DWR */
 179:Generated_Source\PSoC5/cyfitter_cfg.c **** 	CY_SET_XTND_REG16((void CYFAR *)(CYREG_FASTCLK_PLL_P), 0x0008u);
 180:Generated_Source\PSoC5/cyfitter_cfg.c **** 	CY_SET_XTND_REG16((void CYFAR *)(CYREG_FASTCLK_PLL_CFG0), 0x1251u);
 181:Generated_Source\PSoC5/cyfitter_cfg.c **** 	/* Wait up to 250us for the PLL to lock */
 182:Generated_Source\PSoC5/cyfitter_cfg.c **** 	pllLock = 0u;
 183:Generated_Source\PSoC5/cyfitter_cfg.c **** 	for (timeout = 250u / 10u; (timeout > 0u) && (pllLock != 0x03u); timeout--)
 184:Generated_Source\PSoC5/cyfitter_cfg.c **** 	{ 
 185:Generated_Source\PSoC5/cyfitter_cfg.c **** 		pllLock = 0x03u & ((uint8)((uint8)pllLock << 1) | ((CY_GET_XTND_REG8((void CYFAR *)CYREG_FASTCLK_
 186:Generated_Source\PSoC5/cyfitter_cfg.c **** 		CyDelayCycles(10u * 12u); /* Delay 10us based on 12MHz clock */
 187:Generated_Source\PSoC5/cyfitter_cfg.c **** 	}
 188:Generated_Source\PSoC5/cyfitter_cfg.c **** 	/* If we ran out of time the PLL didn't lock so go to the error function */
 189:Generated_Source\PSoC5/cyfitter_cfg.c **** 	if (timeout == 0u)
 190:Generated_Source\PSoC5/cyfitter_cfg.c **** 	{
 191:Generated_Source\PSoC5/cyfitter_cfg.c **** 		CyClockStartupError(CYCLOCKSTART_PLL_ERROR);
 192:Generated_Source\PSoC5/cyfitter_cfg.c **** 	}
 193:Generated_Source\PSoC5/cyfitter_cfg.c **** 
 194:Generated_Source\PSoC5/cyfitter_cfg.c **** 	/* Configure Bus/Master Clock based on settings from Clock DWR */
 195:Generated_Source\PSoC5/cyfitter_cfg.c **** 	CY_SET_XTND_REG16((void CYFAR *)(CYREG_CLKDIST_MSTR0), 0x0100u);
 196:Generated_Source\PSoC5/cyfitter_cfg.c **** 	CY_SET_XTND_REG8((void CYFAR *)(CYREG_CLKDIST_MSTR0), 0x07u);
 197:Generated_Source\PSoC5/cyfitter_cfg.c **** 	CY_SET_XTND_REG8((void CYFAR *)(CYREG_CLKDIST_BCFG0), 0x00u);
 198:Generated_Source\PSoC5/cyfitter_cfg.c **** 	CY_SET_XTND_REG8((void CYFAR *)(CYREG_CLKDIST_BCFG2), 0x48u);
 199:Generated_Source\PSoC5/cyfitter_cfg.c **** 	CY_SET_XTND_REG8((void CYFAR *)(CYREG_CLKDIST_MSTR0), 0x00u);
 200:Generated_Source\PSoC5/cyfitter_cfg.c **** 	CY_SET_XTND_REG8((void CYFAR *)(CYREG_CLKDIST_LD), 0x02u);
 201:Generated_Source\PSoC5/cyfitter_cfg.c **** }
 202:Generated_Source\PSoC5/cyfitter_cfg.c **** 
ARM GAS  C:\Users\labadmin\AppData\Local\Temp\cclsiJVv.s 			page 5


 203:Generated_Source\PSoC5/cyfitter_cfg.c **** 
 204:Generated_Source\PSoC5/cyfitter_cfg.c **** /* Analog API Functions */
 205:Generated_Source\PSoC5/cyfitter_cfg.c **** 
 206:Generated_Source\PSoC5/cyfitter_cfg.c **** 
 207:Generated_Source\PSoC5/cyfitter_cfg.c **** /*******************************************************************************
 208:Generated_Source\PSoC5/cyfitter_cfg.c **** * Function Name: AnalogSetDefault
 209:Generated_Source\PSoC5/cyfitter_cfg.c **** ********************************************************************************
 210:Generated_Source\PSoC5/cyfitter_cfg.c **** *
 211:Generated_Source\PSoC5/cyfitter_cfg.c **** * Summary:
 212:Generated_Source\PSoC5/cyfitter_cfg.c **** *  Sets up the analog portions of the chip to default values based on chip
 213:Generated_Source\PSoC5/cyfitter_cfg.c **** *  configuration options from the project.
 214:Generated_Source\PSoC5/cyfitter_cfg.c **** *
 215:Generated_Source\PSoC5/cyfitter_cfg.c **** * Parameters:
 216:Generated_Source\PSoC5/cyfitter_cfg.c **** *  void
 217:Generated_Source\PSoC5/cyfitter_cfg.c **** *
 218:Generated_Source\PSoC5/cyfitter_cfg.c **** * Return:
 219:Generated_Source\PSoC5/cyfitter_cfg.c **** *  void
 220:Generated_Source\PSoC5/cyfitter_cfg.c **** *
 221:Generated_Source\PSoC5/cyfitter_cfg.c **** *******************************************************************************/
 222:Generated_Source\PSoC5/cyfitter_cfg.c **** static void AnalogSetDefault(void);
 223:Generated_Source\PSoC5/cyfitter_cfg.c **** static void AnalogSetDefault(void)
 224:Generated_Source\PSoC5/cyfitter_cfg.c **** {
 225:Generated_Source\PSoC5/cyfitter_cfg.c **** 	uint8 bg_xover_inl_trim = CY_GET_XTND_REG8((void CYFAR *)(CYREG_FLSHID_MFG_CFG_BG_XOVER_INL_TRIM +
 226:Generated_Source\PSoC5/cyfitter_cfg.c **** 	CY_SET_XTND_REG8((void CYFAR *)(CYREG_BG_DFT0), (bg_xover_inl_trim & 0x07u));
 227:Generated_Source\PSoC5/cyfitter_cfg.c **** 	CY_SET_XTND_REG8((void CYFAR *)(CYREG_BG_DFT1), ((bg_xover_inl_trim >> 4) & 0x0Fu));
 228:Generated_Source\PSoC5/cyfitter_cfg.c **** 	CY_SET_XTND_REG8((void CYFAR *)CYREG_PRT0_AG, 0x10u);
 229:Generated_Source\PSoC5/cyfitter_cfg.c **** 	CY_SET_XTND_REG8((void CYFAR *)CYREG_DAC2_SW0, 0x10u);
 230:Generated_Source\PSoC5/cyfitter_cfg.c **** 	CY_SET_XTND_REG8((void CYFAR *)CYREG_PUMP_CR0, 0x44u);
 231:Generated_Source\PSoC5/cyfitter_cfg.c **** }
 232:Generated_Source\PSoC5/cyfitter_cfg.c **** 
 233:Generated_Source\PSoC5/cyfitter_cfg.c **** 
 234:Generated_Source\PSoC5/cyfitter_cfg.c **** /*******************************************************************************
 235:Generated_Source\PSoC5/cyfitter_cfg.c **** * Function Name: SetAnalogRoutingPumps
 236:Generated_Source\PSoC5/cyfitter_cfg.c **** ********************************************************************************
 237:Generated_Source\PSoC5/cyfitter_cfg.c **** *
 238:Generated_Source\PSoC5/cyfitter_cfg.c **** * Summary:
 239:Generated_Source\PSoC5/cyfitter_cfg.c **** * Enables or disables the analog pumps feeding analog routing switches.
 240:Generated_Source\PSoC5/cyfitter_cfg.c **** * Intended to be called at startup, based on the Vdda system configuration;
 241:Generated_Source\PSoC5/cyfitter_cfg.c **** * may be called during operation when the user informs us that the Vdda voltage
 242:Generated_Source\PSoC5/cyfitter_cfg.c **** * crossed the pump threshold.
 243:Generated_Source\PSoC5/cyfitter_cfg.c **** *
 244:Generated_Source\PSoC5/cyfitter_cfg.c **** * Parameters:
 245:Generated_Source\PSoC5/cyfitter_cfg.c **** *  enabled - 1 to enable the pumps, 0 to disable the pumps
 246:Generated_Source\PSoC5/cyfitter_cfg.c **** *
 247:Generated_Source\PSoC5/cyfitter_cfg.c **** * Return:
 248:Generated_Source\PSoC5/cyfitter_cfg.c **** *  void
 249:Generated_Source\PSoC5/cyfitter_cfg.c **** *
 250:Generated_Source\PSoC5/cyfitter_cfg.c **** *******************************************************************************/
 251:Generated_Source\PSoC5/cyfitter_cfg.c **** void SetAnalogRoutingPumps(uint8 enabled)
 252:Generated_Source\PSoC5/cyfitter_cfg.c **** {
  27              		.loc 1 252 0
  28              		.cfi_startproc
  29              		@ args = 0, pretend = 0, frame = 0
  30              		@ frame_needed = 0, uses_anonymous_args = 0
  31              		@ link register save eliminated.
  32              	.LVL0:
 253:Generated_Source\PSoC5/cyfitter_cfg.c **** 	uint8 regValue = CY_GET_XTND_REG8((void CYFAR *)CYREG_PUMP_CR0);
ARM GAS  C:\Users\labadmin\AppData\Local\Temp\cclsiJVv.s 			page 6


  33              		.loc 1 253 0
  34 0000 054A     		ldr	r2, .L5
  35 0002 1378     		ldrb	r3, [r2]	@ zero_extendqisi2
  36 0004 DBB2     		uxtb	r3, r3
  37              	.LVL1:
 254:Generated_Source\PSoC5/cyfitter_cfg.c **** 	if (enabled != 0u)
  38              		.loc 1 254 0
  39 0006 10B1     		cbz	r0, .L2
 255:Generated_Source\PSoC5/cyfitter_cfg.c **** 	{
 256:Generated_Source\PSoC5/cyfitter_cfg.c **** 		regValue |= 0x22u;
  40              		.loc 1 256 0
  41 0008 43F02203 		orr	r3, r3, #34
  42              	.LVL2:
  43 000c 01E0     		b	.L3
  44              	.L2:
 257:Generated_Source\PSoC5/cyfitter_cfg.c **** 	}
 258:Generated_Source\PSoC5/cyfitter_cfg.c **** 	else
 259:Generated_Source\PSoC5/cyfitter_cfg.c **** 	{
 260:Generated_Source\PSoC5/cyfitter_cfg.c **** 		regValue &= (uint8)~0x22u;
  45              		.loc 1 260 0
  46 000e 03F0DD03 		and	r3, r3, #221
  47              	.LVL3:
  48              	.L3:
 261:Generated_Source\PSoC5/cyfitter_cfg.c **** 	}
 262:Generated_Source\PSoC5/cyfitter_cfg.c **** 	CY_SET_XTND_REG8((void CYFAR *)CYREG_PUMP_CR0, regValue);
  49              		.loc 1 262 0
  50 0012 1370     		strb	r3, [r2]
  51 0014 7047     		bx	lr
  52              	.L6:
  53 0016 00BF     		.align	2
  54              	.L5:
  55 0018 76580040 		.word	1073764470
  56              		.cfi_endproc
  57              	.LFE6:
  58              		.size	SetAnalogRoutingPumps, .-SetAnalogRoutingPumps
  59              		.section	.text.cyfitter_cfg,"ax",%progbits
  60              		.align	1
  61              		.global	cyfitter_cfg
  62              		.thumb
  63              		.thumb_func
  64              		.type	cyfitter_cfg, %function
  65              	cyfitter_cfg:
  66              	.LFB7:
 263:Generated_Source\PSoC5/cyfitter_cfg.c **** }
 264:Generated_Source\PSoC5/cyfitter_cfg.c **** 
 265:Generated_Source\PSoC5/cyfitter_cfg.c **** #define CY_AMUX_UNUSED CYREG_BOOST_SR
 266:Generated_Source\PSoC5/cyfitter_cfg.c **** 
 267:Generated_Source\PSoC5/cyfitter_cfg.c **** 
 268:Generated_Source\PSoC5/cyfitter_cfg.c **** /*******************************************************************************
 269:Generated_Source\PSoC5/cyfitter_cfg.c **** * Function Name: cyfitter_cfg
 270:Generated_Source\PSoC5/cyfitter_cfg.c **** ********************************************************************************
 271:Generated_Source\PSoC5/cyfitter_cfg.c **** * Summary:
 272:Generated_Source\PSoC5/cyfitter_cfg.c **** *  This function is called by the start-up code for the selected device. It
 273:Generated_Source\PSoC5/cyfitter_cfg.c **** *  performs all of the necessary device configuration based on the design
 274:Generated_Source\PSoC5/cyfitter_cfg.c **** *  settings.  This includes settings from the Design Wide Resources (DWR) such
 275:Generated_Source\PSoC5/cyfitter_cfg.c **** *  as Clocks and Pins as well as any component configuration that is necessary.
 276:Generated_Source\PSoC5/cyfitter_cfg.c **** *
ARM GAS  C:\Users\labadmin\AppData\Local\Temp\cclsiJVv.s 			page 7


 277:Generated_Source\PSoC5/cyfitter_cfg.c **** * Parameters:  
 278:Generated_Source\PSoC5/cyfitter_cfg.c **** *   void
 279:Generated_Source\PSoC5/cyfitter_cfg.c **** *
 280:Generated_Source\PSoC5/cyfitter_cfg.c **** * Return:
 281:Generated_Source\PSoC5/cyfitter_cfg.c **** *   void
 282:Generated_Source\PSoC5/cyfitter_cfg.c **** *
 283:Generated_Source\PSoC5/cyfitter_cfg.c **** *******************************************************************************/
 284:Generated_Source\PSoC5/cyfitter_cfg.c **** 
 285:Generated_Source\PSoC5/cyfitter_cfg.c **** void cyfitter_cfg(void)
 286:Generated_Source\PSoC5/cyfitter_cfg.c **** {
  67              		.loc 1 286 0
  68              		.cfi_startproc
  69              		@ args = 0, pretend = 0, frame = 0
  70              		@ frame_needed = 0, uses_anonymous_args = 0
  71 0000 38B5     		push	{r3, r4, r5, lr}
  72              		.cfi_def_cfa_offset 16
  73              		.cfi_offset 3, -16
  74              		.cfi_offset 4, -12
  75              		.cfi_offset 5, -8
  76              		.cfi_offset 14, -4
 287:Generated_Source\PSoC5/cyfitter_cfg.c **** #ifdef CYGlobalIntDisable
 288:Generated_Source\PSoC5/cyfitter_cfg.c **** 	/* Disable interrupts by default. Let user enable if/when they want. */
 289:Generated_Source\PSoC5/cyfitter_cfg.c **** 	CYGlobalIntDisable
  77              		.loc 1 289 0
  78              	@ 289 "Generated_Source\PSoC5\cyfitter_cfg.c" 1
  79 0002 72B6     		CPSID   i
  80              	@ 0 "" 2
 290:Generated_Source\PSoC5/cyfitter_cfg.c **** #endif
 291:Generated_Source\PSoC5/cyfitter_cfg.c **** 
 292:Generated_Source\PSoC5/cyfitter_cfg.c **** 
 293:Generated_Source\PSoC5/cyfitter_cfg.c **** 	/* Set Flash Cycles based on max possible frequency in case a glitch occurs during ClockSetup(). *
 294:Generated_Source\PSoC5/cyfitter_cfg.c **** 	CY_SET_XTND_REG8((void CYFAR *)(CYREG_CACHE_CC_CTL), (((CYDEV_INSTRUCT_CACHE_ENABLED) != 0) ? 0x01
  81              		.loc 1 294 0
  82              		.thumb
  83 0004 4A4B     		ldr	r3, .L17
  84 0006 0024     		movs	r4, #0
  85 0008 1C70     		strb	r4, [r3]
  86              	.LBB30:
  87              	.LBB31:
 171:Generated_Source\PSoC5/cyfitter_cfg.c **** 	CY_SET_XTND_REG8((void CYFAR *)(CYREG_CLKDIST_CR), 0x08u);
  88              		.loc 1 171 0
  89 000a 0222     		movs	r2, #2
  90 000c A3F5A063 		sub	r3, r3, #1280
  91 0010 1A70     		strb	r2, [r3]
 175:Generated_Source\PSoC5/cyfitter_cfg.c **** 	CY_SET_XTND_REG8((void CYFAR *)(CYREG_IMO_TR1), (CY_GET_XTND_REG8((void CYFAR *)CYREG_FLSHID_CUST_
  92              		.loc 1 175 0
  93 0012 0321     		movs	r1, #3
 172:Generated_Source\PSoC5/cyfitter_cfg.c **** 
  94              		.loc 1 172 0
  95 0014 0822     		movs	r2, #8
  96 0016 4FF04023 		mov	r3, #1073758208
  97 001a 1A70     		strb	r2, [r3]
 175:Generated_Source\PSoC5/cyfitter_cfg.c **** 	CY_SET_XTND_REG8((void CYFAR *)(CYREG_IMO_TR1), (CY_GET_XTND_REG8((void CYFAR *)CYREG_FLSHID_CUST_
  98              		.loc 1 175 0
  99 001c 83F80012 		strb	r1, [r3, #512]
 176:Generated_Source\PSoC5/cyfitter_cfg.c **** 
 100              		.loc 1 176 0
ARM GAS  C:\Users\labadmin\AppData\Local\Temp\cclsiJVv.s 			page 8


 101 0020 444B     		ldr	r3, .L17+4
 102 0022 4549     		ldr	r1, .L17+8
 103 0024 1B78     		ldrb	r3, [r3]	@ zero_extendqisi2
 180:Generated_Source\PSoC5/cyfitter_cfg.c **** 	/* Wait up to 250us for the PLL to lock */
 104              		.loc 1 180 0
 105 0026 1925     		movs	r5, #25
 176:Generated_Source\PSoC5/cyfitter_cfg.c **** 
 106              		.loc 1 176 0
 107 0028 DBB2     		uxtb	r3, r3
 108 002a 0B70     		strb	r3, [r1]
 179:Generated_Source\PSoC5/cyfitter_cfg.c **** 	CY_SET_XTND_REG16((void CYFAR *)(CYREG_FASTCLK_PLL_CFG0), 0x1251u);
 109              		.loc 1 179 0
 110 002c 434B     		ldr	r3, .L17+12
 111 002e 1A80     		strh	r2, [r3]	@ movhi
 180:Generated_Source\PSoC5/cyfitter_cfg.c **** 	/* Wait up to 250us for the PLL to lock */
 112              		.loc 1 180 0
 113 0030 41F25122 		movw	r2, #4689
 114 0034 23F8022C 		strh	r2, [r3, #-2]	@ movhi
 115              	.LVL4:
 116              	.L9:
 185:Generated_Source\PSoC5/cyfitter_cfg.c **** 		CyDelayCycles(10u * 12u); /* Delay 10us based on 12MHz clock */
 117              		.loc 1 185 0
 118 0038 414B     		ldr	r3, .L17+16
 186:Generated_Source\PSoC5/cyfitter_cfg.c **** 	}
 119              		.loc 1 186 0
 120 003a 7820     		movs	r0, #120
 185:Generated_Source\PSoC5/cyfitter_cfg.c **** 		CyDelayCycles(10u * 12u); /* Delay 10us based on 12MHz clock */
 121              		.loc 1 185 0
 122 003c 1B78     		ldrb	r3, [r3]	@ zero_extendqisi2
 123 003e 03F00103 		and	r3, r3, #1
 124 0042 43EA4404 		orr	r4, r3, r4, lsl #1
 125              	.LVL5:
 186:Generated_Source\PSoC5/cyfitter_cfg.c **** 	}
 126              		.loc 1 186 0
 127 0046 FFF7FEFF 		bl	CyDelayCycles
 128              	.LVL6:
 183:Generated_Source\PSoC5/cyfitter_cfg.c **** 	{ 
 129              		.loc 1 183 0
 130 004a 013D     		subs	r5, r5, #1
 131              	.LVL7:
 185:Generated_Source\PSoC5/cyfitter_cfg.c **** 		CyDelayCycles(10u * 12u); /* Delay 10us based on 12MHz clock */
 132              		.loc 1 185 0
 133 004c 04F00304 		and	r4, r4, #3
 134              	.LVL8:
 183:Generated_Source\PSoC5/cyfitter_cfg.c **** 	{ 
 135              		.loc 1 183 0
 136 0050 19D0     		beq	.L8
 137              	.LVL9:
 138 0052 032C     		cmp	r4, #3
 139 0054 F0D1     		bne	.L9
 195:Generated_Source\PSoC5/cyfitter_cfg.c **** 	CY_SET_XTND_REG8((void CYFAR *)(CYREG_CLKDIST_MSTR0), 0x07u);
 140              		.loc 1 195 0
 141 0056 3B4B     		ldr	r3, .L17+20
 142 0058 4FF48072 		mov	r2, #256
 143 005c 1A80     		strh	r2, [r3]	@ movhi
 196:Generated_Source\PSoC5/cyfitter_cfg.c **** 	CY_SET_XTND_REG8((void CYFAR *)(CYREG_CLKDIST_BCFG0), 0x00u);
 144              		.loc 1 196 0
ARM GAS  C:\Users\labadmin\AppData\Local\Temp\cclsiJVv.s 			page 9


 145 005e 0722     		movs	r2, #7
 146 0060 1A70     		strb	r2, [r3]
 197:Generated_Source\PSoC5/cyfitter_cfg.c **** 	CY_SET_XTND_REG8((void CYFAR *)(CYREG_CLKDIST_BCFG2), 0x48u);
 147              		.loc 1 197 0
 148 0062 394A     		ldr	r2, .L17+24
 149 0064 0024     		movs	r4, #0
 150              	.LVL10:
 198:Generated_Source\PSoC5/cyfitter_cfg.c **** 	CY_SET_XTND_REG8((void CYFAR *)(CYREG_CLKDIST_MSTR0), 0x00u);
 151              		.loc 1 198 0
 152 0066 4821     		movs	r1, #72
 197:Generated_Source\PSoC5/cyfitter_cfg.c **** 	CY_SET_XTND_REG8((void CYFAR *)(CYREG_CLKDIST_BCFG2), 0x48u);
 153              		.loc 1 197 0
 154 0068 1470     		strb	r4, [r2]
 198:Generated_Source\PSoC5/cyfitter_cfg.c **** 	CY_SET_XTND_REG8((void CYFAR *)(CYREG_CLKDIST_MSTR0), 0x00u);
 155              		.loc 1 198 0
 156 006a 9170     		strb	r1, [r2, #2]
 200:Generated_Source\PSoC5/cyfitter_cfg.c **** }
 157              		.loc 1 200 0
 158 006c 0222     		movs	r2, #2
 199:Generated_Source\PSoC5/cyfitter_cfg.c **** 	CY_SET_XTND_REG8((void CYFAR *)(CYREG_CLKDIST_LD), 0x02u);
 159              		.loc 1 199 0
 160 006e 1C70     		strb	r4, [r3]
 200:Generated_Source\PSoC5/cyfitter_cfg.c **** }
 161              		.loc 1 200 0
 162 0070 03F8032C 		strb	r2, [r3, #-3]
 163              	.LBE31:
 164              	.LBE30:
 295:Generated_Source\PSoC5/cyfitter_cfg.c **** 	/* Setup clocks based on selections from Clock DWR */
 296:Generated_Source\PSoC5/cyfitter_cfg.c **** 	ClockSetup();
 297:Generated_Source\PSoC5/cyfitter_cfg.c **** 	/* Set Flash Cycles based on newly configured 24.00MHz Bus Clock. */
 298:Generated_Source\PSoC5/cyfitter_cfg.c **** 	CY_SET_XTND_REG8((void CYFAR *)(CYREG_CACHE_CC_CTL), (((CYDEV_INSTRUCT_CACHE_ENABLED) != 0) ? 0x81
 165              		.loc 1 298 0
 166 0074 8022     		movs	r2, #128
 167 0076 83F8FC27 		strb	r2, [r3, #2044]
 299:Generated_Source\PSoC5/cyfitter_cfg.c **** 	/* Enable/Disable Debug functionality based on settings from System DWR */
 300:Generated_Source\PSoC5/cyfitter_cfg.c **** 	CY_SET_XTND_REG8((void CYFAR *)CYREG_MLOGIC_DEBUG, (CY_GET_XTND_REG8((void CYFAR *)CYREG_MLOGIC_DE
 168              		.loc 1 300 0
 169 007a 344A     		ldr	r2, .L17+28
 170 007c 1378     		ldrb	r3, [r2]	@ zero_extendqisi2
 171 007e 43F00403 		orr	r3, r3, #4
 172 0082 1370     		strb	r3, [r2]
 173              	.LVL11:
 174 0084 00E0     		b	.L11
 175              	.LVL12:
 176              	.L8:
 177 0086 FEE7     		b	.L8
 178              	.LVL13:
 179              	.L11:
 180              	.LBB32:
 181              	.LBB33:
 301:Generated_Source\PSoC5/cyfitter_cfg.c **** 
 302:Generated_Source\PSoC5/cyfitter_cfg.c **** 	{
 303:Generated_Source\PSoC5/cyfitter_cfg.c **** 
 304:Generated_Source\PSoC5/cyfitter_cfg.c **** 		CYPACKED typedef struct {
 305:Generated_Source\PSoC5/cyfitter_cfg.c **** 			void CYFAR *address;
 306:Generated_Source\PSoC5/cyfitter_cfg.c **** 			uint16 size;
 307:Generated_Source\PSoC5/cyfitter_cfg.c **** 		} CYPACKED_ATTR cfg_memset_t;
ARM GAS  C:\Users\labadmin\AppData\Local\Temp\cclsiJVv.s 			page 10


 308:Generated_Source\PSoC5/cyfitter_cfg.c **** 
 309:Generated_Source\PSoC5/cyfitter_cfg.c **** 		static const cfg_memset_t CYCODE cfg_memset_list [] = {
 310:Generated_Source\PSoC5/cyfitter_cfg.c **** 			/* address, size */
 311:Generated_Source\PSoC5/cyfitter_cfg.c **** 			{(void CYFAR *)(CYREG_PRT3_DR), 64u},
 312:Generated_Source\PSoC5/cyfitter_cfg.c **** 			{(void CYFAR *)(CYREG_PRT12_DR), 16u},
 313:Generated_Source\PSoC5/cyfitter_cfg.c **** 			{(void CYFAR *)(CYREG_PRT15_DR), 16u},
 314:Generated_Source\PSoC5/cyfitter_cfg.c **** 			{(void CYFAR *)(CYDEV_UCFG_B0_P0_U0_BASE), 4096u},
 315:Generated_Source\PSoC5/cyfitter_cfg.c **** 			{(void CYFAR *)(CYDEV_UCFG_B1_P2_U0_BASE), 2048u},
 316:Generated_Source\PSoC5/cyfitter_cfg.c **** 			{(void CYFAR *)(CYDEV_UCFG_DSI0_BASE), 2560u},
 317:Generated_Source\PSoC5/cyfitter_cfg.c **** 			{(void CYFAR *)(CYDEV_UCFG_DSI12_BASE), 512u},
 318:Generated_Source\PSoC5/cyfitter_cfg.c **** 			{(void CYFAR *)(CYREG_BCTL0_MDCLK_EN), 32u},
 319:Generated_Source\PSoC5/cyfitter_cfg.c **** 		};
 320:Generated_Source\PSoC5/cyfitter_cfg.c **** 
 321:Generated_Source\PSoC5/cyfitter_cfg.c **** 		uint8 CYDATA i;
 322:Generated_Source\PSoC5/cyfitter_cfg.c **** 
 323:Generated_Source\PSoC5/cyfitter_cfg.c **** 		/* Zero out critical memory blocks before beginning configuration */
 324:Generated_Source\PSoC5/cyfitter_cfg.c **** 		for (i = 0u; i < (sizeof(cfg_memset_list)/sizeof(cfg_memset_list[0])); i++)
 325:Generated_Source\PSoC5/cyfitter_cfg.c **** 		{
 326:Generated_Source\PSoC5/cyfitter_cfg.c **** 			const cfg_memset_t CYCODE * CYDATA ms = &cfg_memset_list[i];
 327:Generated_Source\PSoC5/cyfitter_cfg.c **** 			CYMEMZERO(ms->address, (size_t)(uint32)(ms->size));
 182              		.loc 1 327 0 discriminator 3
 183 0088 314A     		ldr	r2, .L17+32
 184 008a 0623     		movs	r3, #6
 185 008c 03FB0423 		mla	r3, r3, r4, r2
 186              	.LBB34:
 187              	.LBB35:
  65:Generated_Source\PSoC5/cyfitter_cfg.c **** }
 188              		.loc 1 65 0 discriminator 3
 189 0090 0021     		movs	r1, #0
 190 0092 1868     		ldr	r0, [r3]	@ unaligned
 191 0094 9A88     		ldrh	r2, [r3, #4]	@ unaligned
 192 0096 0134     		adds	r4, r4, #1
 193              	.LVL14:
 194 0098 FFF7FEFF 		bl	memset
 195              	.LVL15:
 196              	.LBE35:
 197              	.LBE34:
 198              	.LBE33:
 324:Generated_Source\PSoC5/cyfitter_cfg.c **** 		{
 199              		.loc 1 324 0 discriminator 3
 200 009c 082C     		cmp	r4, #8
 201 009e F3D1     		bne	.L11
 328:Generated_Source\PSoC5/cyfitter_cfg.c **** 		}
 329:Generated_Source\PSoC5/cyfitter_cfg.c **** 
 330:Generated_Source\PSoC5/cyfitter_cfg.c **** 		/* Enable digital routing */
 331:Generated_Source\PSoC5/cyfitter_cfg.c **** 		CY_SET_XTND_REG8((void CYFAR *)CYREG_BCTL0_BANK_CTL, CY_GET_XTND_REG8((void CYFAR *)CYREG_BCTL0_B
 202              		.loc 1 331 0
 203 00a0 2C4A     		ldr	r2, .L17+36
 332:Generated_Source\PSoC5/cyfitter_cfg.c **** 		CY_SET_XTND_REG8((void CYFAR *)CYREG_BCTL1_BANK_CTL, CY_GET_XTND_REG8((void CYFAR *)CYREG_BCTL1_B
 333:Generated_Source\PSoC5/cyfitter_cfg.c **** 
 334:Generated_Source\PSoC5/cyfitter_cfg.c **** 		/* Enable UDB array */
 335:Generated_Source\PSoC5/cyfitter_cfg.c **** 		CY_SET_XTND_REG8((void CYFAR *)CYREG_PM_ACT_CFG0, CY_GET_XTND_REG8((void CYFAR *)CYREG_PM_ACT_CFG
 336:Generated_Source\PSoC5/cyfitter_cfg.c **** 		CY_SET_XTND_REG8((void CYFAR *)CYREG_PM_AVAIL_CR2, CY_GET_XTND_REG8((void CYFAR *)CYREG_PM_AVAIL_
 204              		.loc 1 336 0
 205 00a2 2D49     		ldr	r1, .L17+40
 331:Generated_Source\PSoC5/cyfitter_cfg.c **** 		CY_SET_XTND_REG8((void CYFAR *)CYREG_BCTL1_BANK_CTL, CY_GET_XTND_REG8((void CYFAR *)CYREG_BCTL1_B
 206              		.loc 1 331 0
ARM GAS  C:\Users\labadmin\AppData\Local\Temp\cclsiJVv.s 			page 11


 207 00a4 1378     		ldrb	r3, [r2]	@ zero_extendqisi2
 208              	.LBE32:
 209              	.LBB36:
 210              	.LBB37:
  72:Generated_Source\PSoC5/cyfitter_cfg.c **** }
 211              		.loc 1 72 0
 212 00a6 2D4C     		ldr	r4, .L17+44
 213              	.LVL16:
 214              	.LBE37:
 215              	.LBE36:
 216              	.LBB39:
 331:Generated_Source\PSoC5/cyfitter_cfg.c **** 		CY_SET_XTND_REG8((void CYFAR *)CYREG_BCTL1_BANK_CTL, CY_GET_XTND_REG8((void CYFAR *)CYREG_BCTL1_B
 217              		.loc 1 331 0
 218 00a8 43F00203 		orr	r3, r3, #2
 219 00ac 1370     		strb	r3, [r2]
 332:Generated_Source\PSoC5/cyfitter_cfg.c **** 		CY_SET_XTND_REG8((void CYFAR *)CYREG_BCTL1_BANK_CTL, CY_GET_XTND_REG8((void CYFAR *)CYREG_BCTL1_B
 220              		.loc 1 332 0
 221 00ae 137C     		ldrb	r3, [r2, #16]	@ zero_extendqisi2
 222              	.LBE39:
 223              	.LBB40:
 224              	.LBB41:
  72:Generated_Source\PSoC5/cyfitter_cfg.c **** }
 225              		.loc 1 72 0
 226 00b0 A4F65254 		subw	r4, r4, #3410
 227              	.LBE41:
 228              	.LBE40:
 229              	.LBB43:
 332:Generated_Source\PSoC5/cyfitter_cfg.c **** 		CY_SET_XTND_REG8((void CYFAR *)CYREG_BCTL1_BANK_CTL, CY_GET_XTND_REG8((void CYFAR *)CYREG_BCTL1_B
 230              		.loc 1 332 0
 231 00b4 43F00203 		orr	r3, r3, #2
 232 00b8 1374     		strb	r3, [r2, #16]
 335:Generated_Source\PSoC5/cyfitter_cfg.c **** 		CY_SET_XTND_REG8((void CYFAR *)CYREG_PM_AVAIL_CR2, CY_GET_XTND_REG8((void CYFAR *)CYREG_PM_AVAIL_
 233              		.loc 1 335 0
 234 00ba A2F58632 		sub	r2, r2, #68608
 235 00be 633A     		subs	r2, r2, #99
 236 00c0 1378     		ldrb	r3, [r2]	@ zero_extendqisi2
 237 00c2 43F04003 		orr	r3, r3, #64
 238 00c6 1370     		strb	r3, [r2]
 239              		.loc 1 336 0
 240 00c8 0B78     		ldrb	r3, [r1]	@ zero_extendqisi2
 241 00ca 43F01003 		orr	r3, r3, #16
 242 00ce 0B70     		strb	r3, [r1]
 243              	.LVL17:
 244              	.LBE43:
 245              	.LBB44:
 246              	.LBB38:
  72:Generated_Source\PSoC5/cyfitter_cfg.c **** }
 247              		.loc 1 72 0
 248 00d0 4FF09043 		mov	r3, #1207959552
 249 00d4 03CB     		ldmia	r3!, {r0, r1}
 250 00d6 C4F8520D 		str	r0, [r4, #3410]	@ unaligned
 251 00da C4F8561D 		str	r1, [r4, #3414]	@ unaligned
 252              	.LVL18:
 253              	.LBE38:
 254              	.LBE44:
 255              	.LBB45:
 256              	.LBB46:
ARM GAS  C:\Users\labadmin\AppData\Local\Temp\cclsiJVv.s 			page 12


 257 00de 03CB     		ldmia	r3!, {r0, r1}
 258 00e0 C4F8620D 		str	r0, [r4, #3426]	@ unaligned
 259 00e4 C4F8661D 		str	r1, [r4, #3430]	@ unaligned
 260              	.LVL19:
 261              	.LBE46:
 262              	.LBE45:
 263              	.LBB47:
 264              	.LBB48:
 265 00e8 03CB     		ldmia	r3!, {r0, r1}
 266 00ea C4F8761D 		str	r1, [r4, #3446]	@ unaligned
 267              	.LBE48:
 268              	.LBE47:
 337:Generated_Source\PSoC5/cyfitter_cfg.c **** 	}
 338:Generated_Source\PSoC5/cyfitter_cfg.c **** 
 339:Generated_Source\PSoC5/cyfitter_cfg.c **** 
 340:Generated_Source\PSoC5/cyfitter_cfg.c **** 	/* Perform second pass device configuration. These items must be configured in specific order afte
 341:Generated_Source\PSoC5/cyfitter_cfg.c **** 	CYCONFIGCPY((void CYFAR *)(CYREG_PRT0_DM0), (const void CYFAR *)(BS_IOPINS0_0_VAL), 8u);
 342:Generated_Source\PSoC5/cyfitter_cfg.c **** 	CYCONFIGCPY((void CYFAR *)(CYREG_PRT1_DM0), (const void CYFAR *)(BS_IOPINS0_1_VAL), 8u);
 343:Generated_Source\PSoC5/cyfitter_cfg.c **** 	CYCONFIGCPY((void CYFAR *)(CYREG_PRT2_DM0), (const void CYFAR *)(BS_IOPINS0_2_VAL), 8u);
 344:Generated_Source\PSoC5/cyfitter_cfg.c **** 	/* Switch Boost to the precision bandgap reference from its internal reference */
 345:Generated_Source\PSoC5/cyfitter_cfg.c **** 	CY_SET_REG8((void CYXDATA *)CYREG_BOOST_CR2, (CY_GET_REG8((void CYXDATA *)CYREG_BOOST_CR2) | 0x08u
 269              		.loc 1 345 0
 270 00ee 1C49     		ldr	r1, .L17+48
 271              	.LBB50:
 272              	.LBB49:
  72:Generated_Source\PSoC5/cyfitter_cfg.c **** }
 273              		.loc 1 72 0
 274 00f0 C4F8720D 		str	r0, [r4, #3442]	@ unaligned
 275              	.LBE49:
 276              	.LBE50:
 277              		.loc 1 345 0
 278 00f4 0B78     		ldrb	r3, [r1]	@ zero_extendqisi2
 279 00f6 43F00803 		orr	r3, r3, #8
 280 00fa 0B70     		strb	r3, [r1]
 346:Generated_Source\PSoC5/cyfitter_cfg.c **** 	CY_SET_XTND_REG8((void CYFAR *)(CYREG_PANTHER_WAITPIPE), 0x01u);
 281              		.loc 1 346 0
 282 00fc 194B     		ldr	r3, .L17+52
 283 00fe 0121     		movs	r1, #1
 284 0100 1970     		strb	r1, [r3]
 285              	.LBB51:
 286              	.LBB52:
 225:Generated_Source\PSoC5/cyfitter_cfg.c **** 	CY_SET_XTND_REG8((void CYFAR *)(CYREG_BG_DFT0), (bg_xover_inl_trim & 0x07u));
 287              		.loc 1 225 0
 288 0102 194B     		ldr	r3, .L17+56
 226:Generated_Source\PSoC5/cyfitter_cfg.c **** 	CY_SET_XTND_REG8((void CYFAR *)(CYREG_BG_DFT1), ((bg_xover_inl_trim >> 4) & 0x0Fu));
 289              		.loc 1 226 0
 290 0104 1949     		ldr	r1, .L17+60
 225:Generated_Source\PSoC5/cyfitter_cfg.c **** 	CY_SET_XTND_REG8((void CYFAR *)(CYREG_BG_DFT0), (bg_xover_inl_trim & 0x07u));
 291              		.loc 1 225 0
 292 0106 1B78     		ldrb	r3, [r3]	@ zero_extendqisi2
 293 0108 DBB2     		uxtb	r3, r3
 294              	.LVL20:
 226:Generated_Source\PSoC5/cyfitter_cfg.c **** 	CY_SET_XTND_REG8((void CYFAR *)(CYREG_BG_DFT1), ((bg_xover_inl_trim >> 4) & 0x0Fu));
 295              		.loc 1 226 0
 296 010a 03F00700 		and	r0, r3, #7
 297 010e 0870     		strb	r0, [r1]
 227:Generated_Source\PSoC5/cyfitter_cfg.c **** 	CY_SET_XTND_REG8((void CYFAR *)CYREG_PRT0_AG, 0x10u);
ARM GAS  C:\Users\labadmin\AppData\Local\Temp\cclsiJVv.s 			page 13


 298              		.loc 1 227 0
 299 0110 1B09     		lsrs	r3, r3, #4
 300              	.LVL21:
 228:Generated_Source\PSoC5/cyfitter_cfg.c **** 	CY_SET_XTND_REG8((void CYFAR *)CYREG_DAC2_SW0, 0x10u);
 301              		.loc 1 228 0
 302 0112 6FF4EC60 		mvn	r0, #1888
 227:Generated_Source\PSoC5/cyfitter_cfg.c **** 	CY_SET_XTND_REG8((void CYFAR *)CYREG_PRT0_AG, 0x10u);
 303              		.loc 1 227 0
 304 0116 4B70     		strb	r3, [r1, #1]
 228:Generated_Source\PSoC5/cyfitter_cfg.c **** 	CY_SET_XTND_REG8((void CYFAR *)CYREG_DAC2_SW0, 0x10u);
 305              		.loc 1 228 0
 306 0118 0144     		add	r1, r1, r0
 307 011a 1023     		movs	r3, #16
 308 011c 0B70     		strb	r3, [r1]
 229:Generated_Source\PSoC5/cyfitter_cfg.c **** 	CY_SET_XTND_REG8((void CYFAR *)CYREG_PUMP_CR0, 0x44u);
 309              		.loc 1 229 0
 310 011e 81F88339 		strb	r3, [r1, #2435]
 230:Generated_Source\PSoC5/cyfitter_cfg.c **** }
 311              		.loc 1 230 0
 312 0122 134B     		ldr	r3, .L17+64
 313 0124 4421     		movs	r1, #68
 314 0126 1970     		strb	r1, [r3]
 315              	.LVL22:
 316              	.LBE52:
 317              	.LBE51:
 318              	.LBB53:
 319              	.LBB42:
  72:Generated_Source\PSoC5/cyfitter_cfg.c **** }
 320              		.loc 1 72 0
 321 0128 0FCA     		ldmia	r2, {r0, r1, r2, r3}
 322 012a 07C4     		stmia	r4!, {r0, r1, r2}
 323 012c 2380     		strh	r3, [r4]	@ movhi
 324 012e 38BD     		pop	{r3, r4, r5, pc}
 325              	.LVL23:
 326              	.L18:
 327              		.align	2
 328              	.L17:
 329 0130 00480040 		.word	1073760256
 330 0134 08010049 		.word	1224737032
 331 0138 A1460040 		.word	1073759905
 332 013c 22420040 		.word	1073758754
 333 0140 25420040 		.word	1073758757
 334 0144 04400040 		.word	1073758212
 335 0148 06400040 		.word	1073758214
 336 014c E8460040 		.word	1073759976
 337 0150 00000000 		.word	.LANCHOR0
 338 0154 03500140 		.word	1073827843
 339 0158 C2430040 		.word	1073759170
 340 015c 02510040 		.word	1073762562
 341 0160 22430040 		.word	1073759010
 342 0164 04000840 		.word	1074266116
 343 0168 CF010049 		.word	1224737231
 344 016c 6E580040 		.word	1073764462
 345 0170 76580040 		.word	1073764470
 346              	.LBE42:
 347              	.LBE53:
 348              		.cfi_endproc
ARM GAS  C:\Users\labadmin\AppData\Local\Temp\cclsiJVv.s 			page 14


 349              	.LFE7:
 350              		.size	cyfitter_cfg, .-cyfitter_cfg
 351              		.section	.rodata
 352              		.set	.LANCHOR0,. + 0
 353              		.type	cfg_memset_list.4859, %object
 354              		.size	cfg_memset_list.4859, 48
 355              	cfg_memset_list.4859:
 356 0000 30510040 		.4byte	1073762608
 357 0004 4000     		.2byte	64
 358 0006 C0510040 		.4byte	1073762752
 359 000a 1000     		.2byte	16
 360 000c F0510040 		.4byte	1073762800
 361 0010 1000     		.2byte	16
 362 0012 00000140 		.4byte	1073807360
 363 0016 0010     		.2byte	4096
 364 0018 00140140 		.4byte	1073812480
 365 001c 0008     		.2byte	2048
 366 001e 00400140 		.4byte	1073823744
 367 0022 000A     		.2byte	2560
 368 0024 004C0140 		.4byte	1073826816
 369 0028 0002     		.2byte	512
 370 002a 00500140 		.4byte	1073827840
 371 002e 2000     		.2byte	32
 372              		.text
 373              	.Letext0:
 374              		.file 2 "c:\\program files (x86)\\cypress\\psoc creator\\4.0\\psoc creator\\import\\gnu\\arm\\4.9.
 375              		.file 3 "Generated_Source\\PSoC5\\cytypes.h"
 376              		.file 4 "Generated_Source\\PSoC5\\CyLib.h"