ARM GAS  C:\Users\labadmin\AppData\Local\Temp\ccgPQNOg.s 			page 1


   1              		.syntax unified
   2              		.cpu cortex-m3
   3              		.fpu softvfp
   4              		.eabi_attribute 20, 1
   5              		.eabi_attribute 21, 1
   6              		.eabi_attribute 23, 3
   7              		.eabi_attribute 24, 1
   8              		.eabi_attribute 25, 1
   9              		.eabi_attribute 26, 1
  10              		.eabi_attribute 30, 4
  11              		.eabi_attribute 34, 1
  12              		.eabi_attribute 18, 4
  13              		.thumb
  14              		.file	"CyFlash.c"
  15              		.text
  16              	.Ltext0:
  17              		.cfi_sections	.debug_frame
  18              		.section	.text.CyFlash_Start,"ax",%progbits
  19              		.align	1
  20              		.global	CyFlash_Start
  21              		.thumb
  22              		.thumb_func
  23              		.type	CyFlash_Start, %function
  24              	CyFlash_Start:
  25              	.LFB0:
  26              		.file 1 "Generated_Source\\PSoC5\\CyFlash.c"
   1:Generated_Source\PSoC5/CyFlash.c **** /***************************************************************************//**
   2:Generated_Source\PSoC5/CyFlash.c **** * \file CyFlash.c
   3:Generated_Source\PSoC5/CyFlash.c **** * \version 5.50
   4:Generated_Source\PSoC5/CyFlash.c **** *
   5:Generated_Source\PSoC5/CyFlash.c **** * \brief Provides an API for the FLASH/EEPROM.
   6:Generated_Source\PSoC5/CyFlash.c **** *
   7:Generated_Source\PSoC5/CyFlash.c **** * \note This code is endian agnostic.
   8:Generated_Source\PSoC5/CyFlash.c **** *
   9:Generated_Source\PSoC5/CyFlash.c **** * \note Documentation of the API's in this file is located in the System
  10:Generated_Source\PSoC5/CyFlash.c **** * Reference Guide provided with PSoC Creator.
  11:Generated_Source\PSoC5/CyFlash.c **** *
  12:Generated_Source\PSoC5/CyFlash.c **** ********************************************************************************
  13:Generated_Source\PSoC5/CyFlash.c **** * \copyright
  14:Generated_Source\PSoC5/CyFlash.c **** * Copyright 2008-2016, Cypress Semiconductor Corporation. All rights reserved.
  15:Generated_Source\PSoC5/CyFlash.c **** * You may use this file only in accordance with the license, terms, conditions,
  16:Generated_Source\PSoC5/CyFlash.c **** * disclaimers, and limitations in the end user license agreement accompanying
  17:Generated_Source\PSoC5/CyFlash.c **** * the software package with which this file was provided.
  18:Generated_Source\PSoC5/CyFlash.c **** *******************************************************************************/
  19:Generated_Source\PSoC5/CyFlash.c **** 
  20:Generated_Source\PSoC5/CyFlash.c **** #include "CyFlash.h"
  21:Generated_Source\PSoC5/CyFlash.c **** 
  22:Generated_Source\PSoC5/CyFlash.c **** /*  The number of EEPROM arrays */
  23:Generated_Source\PSoC5/CyFlash.c **** #define CY_FLASH_EEPROM_NUMBER_ARRAYS                 (1u)
  24:Generated_Source\PSoC5/CyFlash.c **** 
  25:Generated_Source\PSoC5/CyFlash.c **** 
  26:Generated_Source\PSoC5/CyFlash.c **** /*******************************************************************************
  27:Generated_Source\PSoC5/CyFlash.c **** * Holds the die temperature, updated by CySetTemp(). Used for flash writing.
  28:Generated_Source\PSoC5/CyFlash.c **** * The first byte is the sign of the temperature (0 = negative, 1 = positive).
  29:Generated_Source\PSoC5/CyFlash.c **** * The second byte is the magnitude.
  30:Generated_Source\PSoC5/CyFlash.c **** *******************************************************************************/
  31:Generated_Source\PSoC5/CyFlash.c **** uint8 dieTemperature[CY_FLASH_DIE_TEMP_DATA_SIZE];
ARM GAS  C:\Users\labadmin\AppData\Local\Temp\ccgPQNOg.s 			page 2


  32:Generated_Source\PSoC5/CyFlash.c **** 
  33:Generated_Source\PSoC5/CyFlash.c **** #if(CYDEV_ECC_ENABLE == 0)
  34:Generated_Source\PSoC5/CyFlash.c ****     static uint8 * rowBuffer = 0;
  35:Generated_Source\PSoC5/CyFlash.c **** #endif  /* (CYDEV_ECC_ENABLE == 0) */
  36:Generated_Source\PSoC5/CyFlash.c **** 
  37:Generated_Source\PSoC5/CyFlash.c **** 
  38:Generated_Source\PSoC5/CyFlash.c **** static cystatus CySetTempInt(void);
  39:Generated_Source\PSoC5/CyFlash.c **** static cystatus CyFlashGetSpcAlgorithm(void);
  40:Generated_Source\PSoC5/CyFlash.c **** 
  41:Generated_Source\PSoC5/CyFlash.c **** 
  42:Generated_Source\PSoC5/CyFlash.c **** /*******************************************************************************
  43:Generated_Source\PSoC5/CyFlash.c **** * Function Name: CyFlash_Start
  44:Generated_Source\PSoC5/CyFlash.c **** ****************************************************************************//**
  45:Generated_Source\PSoC5/CyFlash.c **** *
  46:Generated_Source\PSoC5/CyFlash.c **** *  Enable the Flash.
  47:Generated_Source\PSoC5/CyFlash.c **** *
  48:Generated_Source\PSoC5/CyFlash.c **** *******************************************************************************/
  49:Generated_Source\PSoC5/CyFlash.c **** void CyFlash_Start(void) 
  50:Generated_Source\PSoC5/CyFlash.c **** {
  27              		.loc 1 50 0
  28              		.cfi_startproc
  29              		@ args = 0, pretend = 0, frame = 0
  30              		@ frame_needed = 0, uses_anonymous_args = 0
  31 0000 08B5     		push	{r3, lr}
  32              		.cfi_def_cfa_offset 8
  33              		.cfi_offset 3, -8
  34              		.cfi_offset 14, -4
  51:Generated_Source\PSoC5/CyFlash.c ****     uint8 interruptState;
  52:Generated_Source\PSoC5/CyFlash.c **** 
  53:Generated_Source\PSoC5/CyFlash.c ****     interruptState = CyEnterCriticalSection();
  35              		.loc 1 53 0
  36 0002 FFF7FEFF 		bl	CyEnterCriticalSection
  37              	.LVL0:
  54:Generated_Source\PSoC5/CyFlash.c **** 
  55:Generated_Source\PSoC5/CyFlash.c **** 
  56:Generated_Source\PSoC5/CyFlash.c ****     /***************************************************************************
  57:Generated_Source\PSoC5/CyFlash.c ****     * Enable SPC clock. This also internally enables the 36MHz IMO, since this
  58:Generated_Source\PSoC5/CyFlash.c ****     * is required for the SPC to function.
  59:Generated_Source\PSoC5/CyFlash.c ****     ***************************************************************************/
  60:Generated_Source\PSoC5/CyFlash.c ****     CY_FLASH_PM_ACT_CFG0_REG    |= CY_FLASH_PM_ACT_CFG0_EN_CLK_SPC;
  38              		.loc 1 60 0
  39 0006 0E4A     		ldr	r2, .L6
  40 0008 1378     		ldrb	r3, [r2]	@ zero_extendqisi2
  41 000a 43F00803 		orr	r3, r3, #8
  42 000e 1370     		strb	r3, [r2]
  61:Generated_Source\PSoC5/CyFlash.c ****     CY_FLASH_PM_ALTACT_CFG0_REG |= CY_FLASH_PM_ALTACT_CFG0_EN_CLK_SPC;
  43              		.loc 1 61 0
  44 0010 137C     		ldrb	r3, [r2, #16]	@ zero_extendqisi2
  45 0012 43F00803 		orr	r3, r3, #8
  46 0016 1374     		strb	r3, [r2, #16]
  62:Generated_Source\PSoC5/CyFlash.c **** 
  63:Generated_Source\PSoC5/CyFlash.c **** 
  64:Generated_Source\PSoC5/CyFlash.c ****     /***************************************************************************
  65:Generated_Source\PSoC5/CyFlash.c ****     * The wake count defines the number of Bus Clock cycles it takes for the
  66:Generated_Source\PSoC5/CyFlash.c ****     * flash or eeprom to wake up from a low power mode independent of the chip
  67:Generated_Source\PSoC5/CyFlash.c ****     * power mode. Wake up time for these blocks is 5 us.
  68:Generated_Source\PSoC5/CyFlash.c ****     * The granularity of this register is 2 Bus Clock cycles, so a value of 0x1E
ARM GAS  C:\Users\labadmin\AppData\Local\Temp\ccgPQNOg.s 			page 3


  69:Generated_Source\PSoC5/CyFlash.c ****     * (30d) defines the wake up time as 60 cycles of the Bus Clock.
  70:Generated_Source\PSoC5/CyFlash.c ****     * This register needs to be written with a value dependent on the Bus Clock
  71:Generated_Source\PSoC5/CyFlash.c ****     * frequency so that the duration of the cycles is equal to or greater than
  72:Generated_Source\PSoC5/CyFlash.c ****     * the 5 us delay required.
  73:Generated_Source\PSoC5/CyFlash.c ****     ***************************************************************************/
  74:Generated_Source\PSoC5/CyFlash.c ****     CY_FLASH_SPC_FM_EE_WAKE_CNT_REG = CY_FLASH_SPC_FM_EE_WAKE_CNT_80MHZ;
  47              		.loc 1 74 0
  48 0018 0A4B     		ldr	r3, .L6+4
  49 001a C822     		movs	r2, #200
  50 001c 1A70     		strb	r2, [r3]
  75:Generated_Source\PSoC5/CyFlash.c **** 
  76:Generated_Source\PSoC5/CyFlash.c **** 
  77:Generated_Source\PSoC5/CyFlash.c ****     /***************************************************************************
  78:Generated_Source\PSoC5/CyFlash.c ****     * Enable flash. Active flash macros consume current, but re-enabling a
  79:Generated_Source\PSoC5/CyFlash.c ****     * disabled flash macro takes 5us. If the CPU attempts to fetch out of the
  80:Generated_Source\PSoC5/CyFlash.c ****     * macro during that time, it will be stalled. This bit allows the flash to
  81:Generated_Source\PSoC5/CyFlash.c ****     * be enabled even if the CPU is disabled, which allows a quicker return to
  82:Generated_Source\PSoC5/CyFlash.c ****     * code execution.
  83:Generated_Source\PSoC5/CyFlash.c ****     ***************************************************************************/
  84:Generated_Source\PSoC5/CyFlash.c ****     CY_FLASH_PM_ACT_CFG12_REG    |= CY_FLASH_PM_ACT_CFG12_EN_FM;
  51              		.loc 1 84 0
  52 001e 0A4A     		ldr	r2, .L6+8
  53 0020 1378     		ldrb	r3, [r2]	@ zero_extendqisi2
  54 0022 43F00F03 		orr	r3, r3, #15
  55 0026 1370     		strb	r3, [r2]
  85:Generated_Source\PSoC5/CyFlash.c ****     CY_FLASH_PM_ALTACT_CFG12_REG |= CY_FLASH_PM_ALTACT_CFG12_EN_FM;
  56              		.loc 1 85 0
  57 0028 137C     		ldrb	r3, [r2, #16]	@ zero_extendqisi2
  58 002a 43F00F03 		orr	r3, r3, #15
  59 002e 1374     		strb	r3, [r2, #16]
  60              	.L2:
  86:Generated_Source\PSoC5/CyFlash.c **** 
  87:Generated_Source\PSoC5/CyFlash.c ****     while(0u == (CY_FLASH_SPC_FM_EE_CR_REG & CY_FLASH_EE_EE_AWAKE))
  61              		.loc 1 87 0 discriminator 1
  62 0030 064B     		ldr	r3, .L6+12
  63 0032 1B78     		ldrb	r3, [r3]	@ zero_extendqisi2
  64 0034 9B06     		lsls	r3, r3, #26
  65 0036 FBD5     		bpl	.L2
  88:Generated_Source\PSoC5/CyFlash.c ****     {
  89:Generated_Source\PSoC5/CyFlash.c ****         /* Non-zero status denotes that the EEPROM/Flash is awake & powered. */
  90:Generated_Source\PSoC5/CyFlash.c ****     }
  91:Generated_Source\PSoC5/CyFlash.c **** 
  92:Generated_Source\PSoC5/CyFlash.c ****     CyExitCriticalSection(interruptState);
  93:Generated_Source\PSoC5/CyFlash.c **** }
  66              		.loc 1 93 0
  67 0038 BDE80840 		pop	{r3, lr}
  68              		.cfi_restore 14
  69              		.cfi_restore 3
  70              		.cfi_def_cfa_offset 0
  92:Generated_Source\PSoC5/CyFlash.c **** }
  71              		.loc 1 92 0
  72 003c FFF7FEBF 		b	CyExitCriticalSection
  73              	.LVL1:
  74              	.L7:
  75              		.align	2
  76              	.L6:
  77 0040 A0430040 		.word	1073759136
ARM GAS  C:\Users\labadmin\AppData\Local\Temp\ccgPQNOg.s 			page 4


  78 0044 01470040 		.word	1073760001
  79 0048 AC430040 		.word	1073759148
  80 004c 00470040 		.word	1073760000
  81              		.cfi_endproc
  82              	.LFE0:
  83              		.size	CyFlash_Start, .-CyFlash_Start
  84              		.section	.text.CyFlash_Stop,"ax",%progbits
  85              		.align	1
  86              		.global	CyFlash_Stop
  87              		.thumb
  88              		.thumb_func
  89              		.type	CyFlash_Stop, %function
  90              	CyFlash_Stop:
  91              	.LFB1:
  94:Generated_Source\PSoC5/CyFlash.c **** 
  95:Generated_Source\PSoC5/CyFlash.c **** 
  96:Generated_Source\PSoC5/CyFlash.c **** /*******************************************************************************
  97:Generated_Source\PSoC5/CyFlash.c **** * Function Name: CyFlash_Stop
  98:Generated_Source\PSoC5/CyFlash.c **** ****************************************************************************//**
  99:Generated_Source\PSoC5/CyFlash.c **** *
 100:Generated_Source\PSoC5/CyFlash.c **** *  Disable the Flash.
 101:Generated_Source\PSoC5/CyFlash.c **** *
 102:Generated_Source\PSoC5/CyFlash.c **** * \sideeffect
 103:Generated_Source\PSoC5/CyFlash.c **** *  This setting is ignored as long as the CPU is currently running.  This will
 104:Generated_Source\PSoC5/CyFlash.c **** *  only take effect when the CPU is later disabled.
 105:Generated_Source\PSoC5/CyFlash.c **** *
 106:Generated_Source\PSoC5/CyFlash.c **** *******************************************************************************/
 107:Generated_Source\PSoC5/CyFlash.c **** void CyFlash_Stop(void) 
 108:Generated_Source\PSoC5/CyFlash.c **** {
  92              		.loc 1 108 0
  93              		.cfi_startproc
  94              		@ args = 0, pretend = 0, frame = 0
  95              		@ frame_needed = 0, uses_anonymous_args = 0
  96 0000 08B5     		push	{r3, lr}
  97              		.cfi_def_cfa_offset 8
  98              		.cfi_offset 3, -8
  99              		.cfi_offset 14, -4
 109:Generated_Source\PSoC5/CyFlash.c ****     uint8 interruptState;
 110:Generated_Source\PSoC5/CyFlash.c **** 
 111:Generated_Source\PSoC5/CyFlash.c ****     interruptState = CyEnterCriticalSection();
 100              		.loc 1 111 0
 101 0002 FFF7FEFF 		bl	CyEnterCriticalSection
 102              	.LVL2:
 112:Generated_Source\PSoC5/CyFlash.c **** 
 113:Generated_Source\PSoC5/CyFlash.c ****     CY_FLASH_PM_ACT_CFG12_REG    &= ((uint8)(~CY_FLASH_PM_ACT_CFG12_EN_FM));
 103              		.loc 1 113 0
 104 0006 064A     		ldr	r2, .L9
 105 0008 1378     		ldrb	r3, [r2]	@ zero_extendqisi2
 106 000a 03F0F003 		and	r3, r3, #240
 107 000e 1370     		strb	r3, [r2]
 114:Generated_Source\PSoC5/CyFlash.c ****     CY_FLASH_PM_ALTACT_CFG12_REG &= ((uint8)(~CY_FLASH_PM_ALTACT_CFG12_EN_FM));
 108              		.loc 1 114 0
 109 0010 137C     		ldrb	r3, [r2, #16]	@ zero_extendqisi2
 110 0012 03F0F003 		and	r3, r3, #240
 111 0016 1374     		strb	r3, [r2, #16]
 115:Generated_Source\PSoC5/CyFlash.c **** 
 116:Generated_Source\PSoC5/CyFlash.c ****     CyExitCriticalSection(interruptState);
ARM GAS  C:\Users\labadmin\AppData\Local\Temp\ccgPQNOg.s 			page 5


 117:Generated_Source\PSoC5/CyFlash.c **** }
 112              		.loc 1 117 0
 113 0018 BDE80840 		pop	{r3, lr}
 114              		.cfi_restore 14
 115              		.cfi_restore 3
 116              		.cfi_def_cfa_offset 0
 116:Generated_Source\PSoC5/CyFlash.c **** }
 117              		.loc 1 116 0
 118 001c FFF7FEBF 		b	CyExitCriticalSection
 119              	.LVL3:
 120              	.L10:
 121              		.align	2
 122              	.L9:
 123 0020 AC430040 		.word	1073759148
 124              		.cfi_endproc
 125              	.LFE1:
 126              		.size	CyFlash_Stop, .-CyFlash_Stop
 127              		.section	.text.CySetTemp,"ax",%progbits
 128              		.align	1
 129              		.global	CySetTemp
 130              		.thumb
 131              		.thumb_func
 132              		.type	CySetTemp, %function
 133              	CySetTemp:
 134              	.LFB4:
 118:Generated_Source\PSoC5/CyFlash.c **** 
 119:Generated_Source\PSoC5/CyFlash.c **** 
 120:Generated_Source\PSoC5/CyFlash.c **** /*******************************************************************************
 121:Generated_Source\PSoC5/CyFlash.c **** * Function Name: CySetTempInt
 122:Generated_Source\PSoC5/CyFlash.c **** ****************************************************************************//**
 123:Generated_Source\PSoC5/CyFlash.c **** *
 124:Generated_Source\PSoC5/CyFlash.c **** *  Sends a command to the SPC to read the die temperature. Sets a global value
 125:Generated_Source\PSoC5/CyFlash.c **** *  used by the Write function. This function must be called once before
 126:Generated_Source\PSoC5/CyFlash.c **** *  executing a series of Flash writing functions.
 127:Generated_Source\PSoC5/CyFlash.c **** *
 128:Generated_Source\PSoC5/CyFlash.c **** * \return
 129:Generated_Source\PSoC5/CyFlash.c **** *  status:
 130:Generated_Source\PSoC5/CyFlash.c **** *   CYRET_SUCCESS - if successful
 131:Generated_Source\PSoC5/CyFlash.c **** *   CYRET_LOCKED  - if Flash writing already in use
 132:Generated_Source\PSoC5/CyFlash.c **** *   CYRET_UNKNOWN - if there was an SPC error
 133:Generated_Source\PSoC5/CyFlash.c **** *
 134:Generated_Source\PSoC5/CyFlash.c **** *******************************************************************************/
 135:Generated_Source\PSoC5/CyFlash.c **** static cystatus CySetTempInt(void) 
 136:Generated_Source\PSoC5/CyFlash.c **** {
 137:Generated_Source\PSoC5/CyFlash.c ****     cystatus status;
 138:Generated_Source\PSoC5/CyFlash.c **** 
 139:Generated_Source\PSoC5/CyFlash.c ****     /* Make sure SPC is powered */
 140:Generated_Source\PSoC5/CyFlash.c ****     CySpcStart();
 141:Generated_Source\PSoC5/CyFlash.c **** 
 142:Generated_Source\PSoC5/CyFlash.c ****     /* Plan for failure. */
 143:Generated_Source\PSoC5/CyFlash.c ****     status = CYRET_UNKNOWN;
 144:Generated_Source\PSoC5/CyFlash.c **** 
 145:Generated_Source\PSoC5/CyFlash.c ****     if(CySpcLock() == CYRET_SUCCESS)
 146:Generated_Source\PSoC5/CyFlash.c ****     {
 147:Generated_Source\PSoC5/CyFlash.c ****         /* Write the command. */
 148:Generated_Source\PSoC5/CyFlash.c ****         if(CYRET_STARTED == CySpcGetTemp(CY_TEMP_NUMBER_OF_SAMPLES))
 149:Generated_Source\PSoC5/CyFlash.c ****         {
ARM GAS  C:\Users\labadmin\AppData\Local\Temp\ccgPQNOg.s 			page 6


 150:Generated_Source\PSoC5/CyFlash.c ****             do
 151:Generated_Source\PSoC5/CyFlash.c ****             {
 152:Generated_Source\PSoC5/CyFlash.c ****                 if(CySpcReadData(dieTemperature, CY_FLASH_DIE_TEMP_DATA_SIZE) == CY_FLASH_DIE_TEMP_
 153:Generated_Source\PSoC5/CyFlash.c ****                 {
 154:Generated_Source\PSoC5/CyFlash.c ****                     status = CYRET_SUCCESS;
 155:Generated_Source\PSoC5/CyFlash.c **** 
 156:Generated_Source\PSoC5/CyFlash.c ****                     while(CY_SPC_BUSY)
 157:Generated_Source\PSoC5/CyFlash.c ****                     {
 158:Generated_Source\PSoC5/CyFlash.c ****                         /* Spin until idle. */
 159:Generated_Source\PSoC5/CyFlash.c ****                         CyDelayUs(1u);
 160:Generated_Source\PSoC5/CyFlash.c ****                     }
 161:Generated_Source\PSoC5/CyFlash.c ****                     break;
 162:Generated_Source\PSoC5/CyFlash.c ****                 }
 163:Generated_Source\PSoC5/CyFlash.c **** 
 164:Generated_Source\PSoC5/CyFlash.c ****             } while(CY_SPC_BUSY);
 165:Generated_Source\PSoC5/CyFlash.c ****         }
 166:Generated_Source\PSoC5/CyFlash.c **** 
 167:Generated_Source\PSoC5/CyFlash.c ****         CySpcUnlock();
 168:Generated_Source\PSoC5/CyFlash.c ****     }
 169:Generated_Source\PSoC5/CyFlash.c ****     else
 170:Generated_Source\PSoC5/CyFlash.c ****     {
 171:Generated_Source\PSoC5/CyFlash.c ****         status = CYRET_LOCKED;
 172:Generated_Source\PSoC5/CyFlash.c ****     }
 173:Generated_Source\PSoC5/CyFlash.c **** 
 174:Generated_Source\PSoC5/CyFlash.c ****     return (status);
 175:Generated_Source\PSoC5/CyFlash.c **** }
 176:Generated_Source\PSoC5/CyFlash.c **** 
 177:Generated_Source\PSoC5/CyFlash.c **** 
 178:Generated_Source\PSoC5/CyFlash.c **** /*******************************************************************************
 179:Generated_Source\PSoC5/CyFlash.c **** * Function Name: CyFlashGetSpcAlgorithm
 180:Generated_Source\PSoC5/CyFlash.c **** ****************************************************************************//**
 181:Generated_Source\PSoC5/CyFlash.c **** *
 182:Generated_Source\PSoC5/CyFlash.c **** *  Sends a command to the SPC to download code into RAM.
 183:Generated_Source\PSoC5/CyFlash.c **** *
 184:Generated_Source\PSoC5/CyFlash.c **** * \return
 185:Generated_Source\PSoC5/CyFlash.c **** *  status:
 186:Generated_Source\PSoC5/CyFlash.c **** *   CYRET_SUCCESS - if successful
 187:Generated_Source\PSoC5/CyFlash.c **** *   CYRET_LOCKED  - if Flash writing already in use
 188:Generated_Source\PSoC5/CyFlash.c **** *   CYRET_UNKNOWN - if there was an SPC error
 189:Generated_Source\PSoC5/CyFlash.c **** *
 190:Generated_Source\PSoC5/CyFlash.c **** *******************************************************************************/
 191:Generated_Source\PSoC5/CyFlash.c **** static cystatus CyFlashGetSpcAlgorithm(void) 
 192:Generated_Source\PSoC5/CyFlash.c **** {
 193:Generated_Source\PSoC5/CyFlash.c ****     cystatus status;
 194:Generated_Source\PSoC5/CyFlash.c **** 
 195:Generated_Source\PSoC5/CyFlash.c ****     /* Make sure SPC is powered */
 196:Generated_Source\PSoC5/CyFlash.c ****     CySpcStart();
 197:Generated_Source\PSoC5/CyFlash.c **** 
 198:Generated_Source\PSoC5/CyFlash.c ****     if(CySpcLock() == CYRET_SUCCESS)
 199:Generated_Source\PSoC5/CyFlash.c ****     {
 200:Generated_Source\PSoC5/CyFlash.c ****         status = CySpcGetAlgorithm();
 201:Generated_Source\PSoC5/CyFlash.c **** 
 202:Generated_Source\PSoC5/CyFlash.c ****         if(CYRET_STARTED == status)
 203:Generated_Source\PSoC5/CyFlash.c ****         {
 204:Generated_Source\PSoC5/CyFlash.c ****             while(CY_SPC_BUSY)
 205:Generated_Source\PSoC5/CyFlash.c ****             {
 206:Generated_Source\PSoC5/CyFlash.c ****                 /* Spin until idle. */
ARM GAS  C:\Users\labadmin\AppData\Local\Temp\ccgPQNOg.s 			page 7


 207:Generated_Source\PSoC5/CyFlash.c ****                 CyDelayUs(1u);
 208:Generated_Source\PSoC5/CyFlash.c ****             }
 209:Generated_Source\PSoC5/CyFlash.c **** 
 210:Generated_Source\PSoC5/CyFlash.c ****             if(CY_SPC_STATUS_SUCCESS == CY_SPC_READ_STATUS)
 211:Generated_Source\PSoC5/CyFlash.c ****             {
 212:Generated_Source\PSoC5/CyFlash.c ****                 status = CYRET_SUCCESS;
 213:Generated_Source\PSoC5/CyFlash.c ****             }
 214:Generated_Source\PSoC5/CyFlash.c ****         }
 215:Generated_Source\PSoC5/CyFlash.c ****         CySpcUnlock();
 216:Generated_Source\PSoC5/CyFlash.c ****     }
 217:Generated_Source\PSoC5/CyFlash.c ****     else
 218:Generated_Source\PSoC5/CyFlash.c ****     {
 219:Generated_Source\PSoC5/CyFlash.c ****         status = CYRET_LOCKED;
 220:Generated_Source\PSoC5/CyFlash.c ****     }
 221:Generated_Source\PSoC5/CyFlash.c **** 
 222:Generated_Source\PSoC5/CyFlash.c ****     return (status);
 223:Generated_Source\PSoC5/CyFlash.c **** }
 224:Generated_Source\PSoC5/CyFlash.c **** 
 225:Generated_Source\PSoC5/CyFlash.c **** 
 226:Generated_Source\PSoC5/CyFlash.c **** /*******************************************************************************
 227:Generated_Source\PSoC5/CyFlash.c **** * Function Name: CySetTemp
 228:Generated_Source\PSoC5/CyFlash.c **** ****************************************************************************//**
 229:Generated_Source\PSoC5/CyFlash.c **** *
 230:Generated_Source\PSoC5/CyFlash.c **** *  This is a wraparound for CySetTempInt(). It is used to return the second
 231:Generated_Source\PSoC5/CyFlash.c **** *  successful read of the temperature value.
 232:Generated_Source\PSoC5/CyFlash.c **** *
 233:Generated_Source\PSoC5/CyFlash.c **** * \return
 234:Generated_Source\PSoC5/CyFlash.c **** *  status:
 235:Generated_Source\PSoC5/CyFlash.c **** *   CYRET_SUCCESS if successful.
 236:Generated_Source\PSoC5/CyFlash.c **** *   CYRET_LOCKED  if Flash writing already in use
 237:Generated_Source\PSoC5/CyFlash.c **** *   CYRET_UNKNOWN if there was an SPC error.
 238:Generated_Source\PSoC5/CyFlash.c **** *
 239:Generated_Source\PSoC5/CyFlash.c **** *  uint8 dieTemperature[2]:
 240:Generated_Source\PSoC5/CyFlash.c **** *   Holds the die temperature for the flash writing algorithm. The first byte is
 241:Generated_Source\PSoC5/CyFlash.c **** *   the sign of the temperature (0 = negative, 1 = positive). The second byte is
 242:Generated_Source\PSoC5/CyFlash.c **** *   the magnitude.
 243:Generated_Source\PSoC5/CyFlash.c **** *
 244:Generated_Source\PSoC5/CyFlash.c **** *******************************************************************************/
 245:Generated_Source\PSoC5/CyFlash.c **** cystatus CySetTemp(void) 
 246:Generated_Source\PSoC5/CyFlash.c **** {
 135              		.loc 1 246 0
 136              		.cfi_startproc
 137              		@ args = 0, pretend = 0, frame = 0
 138              		@ frame_needed = 0, uses_anonymous_args = 0
 139 0000 38B5     		push	{r3, r4, r5, lr}
 140              		.cfi_def_cfa_offset 16
 141              		.cfi_offset 3, -16
 142              		.cfi_offset 4, -12
 143              		.cfi_offset 5, -8
 144              		.cfi_offset 14, -4
 145              	.LBB6:
 146              	.LBB7:
 196:Generated_Source\PSoC5/CyFlash.c **** 
 147              		.loc 1 196 0
 148 0002 FFF7FEFF 		bl	CySpcStart
 149              	.LVL4:
 198:Generated_Source\PSoC5/CyFlash.c ****     {
ARM GAS  C:\Users\labadmin\AppData\Local\Temp\ccgPQNOg.s 			page 8


 150              		.loc 1 198 0
 151 0006 FFF7FEFF 		bl	CySpcLock
 152              	.LVL5:
 153 000a 08B1     		cbz	r0, .L12
 154              	.L17:
 219:Generated_Source\PSoC5/CyFlash.c ****     }
 155              		.loc 1 219 0
 156 000c 0424     		movs	r4, #4
 157 000e 38E0     		b	.L13
 158              	.L12:
 200:Generated_Source\PSoC5/CyFlash.c **** 
 159              		.loc 1 200 0
 160 0010 FFF7FEFF 		bl	CySpcGetAlgorithm
 161              	.LVL6:
 202:Generated_Source\PSoC5/CyFlash.c ****         {
 162              		.loc 1 202 0
 163 0014 0728     		cmp	r0, #7
 200:Generated_Source\PSoC5/CyFlash.c **** 
 164              		.loc 1 200 0
 165 0016 0446     		mov	r4, r0
 166              	.LVL7:
 202:Generated_Source\PSoC5/CyFlash.c ****         {
 167              		.loc 1 202 0
 168 0018 0FD1     		bne	.L15
 169              	.LVL8:
 170              	.L14:
 204:Generated_Source\PSoC5/CyFlash.c ****             {
 171              		.loc 1 204 0
 172 001a 1B4B     		ldr	r3, .L37
 173 001c 1A78     		ldrb	r2, [r3]	@ zero_extendqisi2
 174 001e 9007     		lsls	r0, r2, #30
 175 0020 03D4     		bmi	.L36
 207:Generated_Source\PSoC5/CyFlash.c ****             }
 176              		.loc 1 207 0
 177 0022 0120     		movs	r0, #1
 178 0024 FFF7FEFF 		bl	CyDelayUs
 179              	.LVL9:
 180 0028 F7E7     		b	.L14
 181              	.L36:
 210:Generated_Source\PSoC5/CyFlash.c ****             {
 182              		.loc 1 210 0
 183 002a 1A78     		ldrb	r2, [r3]	@ zero_extendqisi2
 184 002c 9107     		lsls	r1, r2, #30
 185 002e 04D5     		bpl	.L15
 186 0030 1B78     		ldrb	r3, [r3]	@ zero_extendqisi2
 212:Generated_Source\PSoC5/CyFlash.c ****             }
 187              		.loc 1 212 0
 188 0032 9B08     		lsrs	r3, r3, #2
 189 0034 14BF     		ite	ne
 190 0036 0724     		movne	r4, #7
 191              	.LVL10:
 192 0038 0024     		moveq	r4, #0
 193              	.L15:
 194              	.LVL11:
 215:Generated_Source\PSoC5/CyFlash.c ****     }
 195              		.loc 1 215 0
 196 003a FFF7FEFF 		bl	CySpcUnlock
ARM GAS  C:\Users\labadmin\AppData\Local\Temp\ccgPQNOg.s 			page 9


 197              	.LVL12:
 198              	.LBE7:
 199              	.LBE6:
 247:Generated_Source\PSoC5/CyFlash.c ****     cystatus status = CyFlashGetSpcAlgorithm();
 248:Generated_Source\PSoC5/CyFlash.c **** 
 249:Generated_Source\PSoC5/CyFlash.c ****     if(status == CYRET_SUCCESS)
 200              		.loc 1 249 0
 201 003e 04BB     		cbnz	r4, .L13
 202              	.LVL13:
 203              	.LBB8:
 204              	.LBB9:
 140:Generated_Source\PSoC5/CyFlash.c **** 
 205              		.loc 1 140 0
 206 0040 FFF7FEFF 		bl	CySpcStart
 207              	.LVL14:
 145:Generated_Source\PSoC5/CyFlash.c ****     {
 208              		.loc 1 145 0
 209 0044 FFF7FEFF 		bl	CySpcLock
 210              	.LVL15:
 211 0048 0028     		cmp	r0, #0
 212 004a DFD1     		bne	.L17
 148:Generated_Source\PSoC5/CyFlash.c ****         {
 213              		.loc 1 148 0
 214 004c 0120     		movs	r0, #1
 215 004e FFF7FEFF 		bl	CySpcGetTemp
 216              	.LVL16:
 217 0052 0728     		cmp	r0, #7
 218 0054 05D0     		beq	.L18
 219              	.L23:
 143:Generated_Source\PSoC5/CyFlash.c **** 
 220              		.loc 1 143 0
 221 0056 4FF0FF34 		mov	r4, #-1
 222 005a 10E0     		b	.L19
 223              	.L35:
 164:Generated_Source\PSoC5/CyFlash.c ****         }
 224              		.loc 1 164 0
 225 005c 2B78     		ldrb	r3, [r5]	@ zero_extendqisi2
 226 005e 9B07     		lsls	r3, r3, #30
 227 0060 F9D4     		bmi	.L23
 228              	.L18:
 152:Generated_Source\PSoC5/CyFlash.c ****                 {
 229              		.loc 1 152 0
 230 0062 0A48     		ldr	r0, .L37+4
 231 0064 0221     		movs	r1, #2
 232 0066 FFF7FEFF 		bl	CySpcReadData
 233              	.LVL17:
 234 006a 0228     		cmp	r0, #2
 235 006c 064D     		ldr	r5, .L37
 236 006e F5D1     		bne	.L35
 237              	.L20:
 156:Generated_Source\PSoC5/CyFlash.c ****                     {
 238              		.loc 1 156 0
 239 0070 2B78     		ldrb	r3, [r5]	@ zero_extendqisi2
 240 0072 9A07     		lsls	r2, r3, #30
 241 0074 03D4     		bmi	.L19
 159:Generated_Source\PSoC5/CyFlash.c ****                     }
 242              		.loc 1 159 0
ARM GAS  C:\Users\labadmin\AppData\Local\Temp\ccgPQNOg.s 			page 10


 243 0076 0120     		movs	r0, #1
 244 0078 FFF7FEFF 		bl	CyDelayUs
 245              	.LVL18:
 246 007c F8E7     		b	.L20
 247              	.L19:
 248              	.LVL19:
 167:Generated_Source\PSoC5/CyFlash.c ****     }
 249              		.loc 1 167 0
 250 007e FFF7FEFF 		bl	CySpcUnlock
 251              	.LVL20:
 252              	.L13:
 253              	.LBE9:
 254              	.LBE8:
 250:Generated_Source\PSoC5/CyFlash.c ****     {
 251:Generated_Source\PSoC5/CyFlash.c ****         status = CySetTempInt();
 252:Generated_Source\PSoC5/CyFlash.c ****     }
 253:Generated_Source\PSoC5/CyFlash.c **** 
 254:Generated_Source\PSoC5/CyFlash.c ****     return (status);
 255:Generated_Source\PSoC5/CyFlash.c **** }
 255              		.loc 1 255 0
 256 0082 2046     		mov	r0, r4
 257 0084 38BD     		pop	{r3, r4, r5, pc}
 258              	.LVL21:
 259              	.L38:
 260 0086 00BF     		.align	2
 261              	.L37:
 262 0088 22470040 		.word	1073760034
 263 008c 00000000 		.word	dieTemperature
 264              		.cfi_endproc
 265              	.LFE4:
 266              		.size	CySetTemp, .-CySetTemp
 267              		.section	.text.CySetFlashEEBuffer,"ax",%progbits
 268              		.align	1
 269              		.global	CySetFlashEEBuffer
 270              		.thumb
 271              		.thumb_func
 272              		.type	CySetFlashEEBuffer, %function
 273              	CySetFlashEEBuffer:
 274              	.LFB5:
 256:Generated_Source\PSoC5/CyFlash.c **** 
 257:Generated_Source\PSoC5/CyFlash.c **** 
 258:Generated_Source\PSoC5/CyFlash.c **** /*******************************************************************************
 259:Generated_Source\PSoC5/CyFlash.c **** * Function Name: CySetFlashEEBuffer
 260:Generated_Source\PSoC5/CyFlash.c **** ****************************************************************************//**
 261:Generated_Source\PSoC5/CyFlash.c **** *
 262:Generated_Source\PSoC5/CyFlash.c **** *  Sets the user supplied temporary buffer to store SPC data while performing
 263:Generated_Source\PSoC5/CyFlash.c **** *  Flash and EEPROM commands. This buffer is only necessary when the Flash ECC
 264:Generated_Source\PSoC5/CyFlash.c **** *  is disabled.
 265:Generated_Source\PSoC5/CyFlash.c **** *
 266:Generated_Source\PSoC5/CyFlash.c **** *  \param buffer:
 267:Generated_Source\PSoC5/CyFlash.c **** *   The address of a block of memory to store temporary memory. The size of the
 268:Generated_Source\PSoC5/CyFlash.c **** *   block of memory is CYDEV_FLS_ROW_SIZE + CYDEV_ECC_ROW_SIZE.
 269:Generated_Source\PSoC5/CyFlash.c **** *
 270:Generated_Source\PSoC5/CyFlash.c **** * \return
 271:Generated_Source\PSoC5/CyFlash.c **** *  status:
 272:Generated_Source\PSoC5/CyFlash.c **** *   CYRET_SUCCESS if successful.
 273:Generated_Source\PSoC5/CyFlash.c **** *   CYRET_BAD_PARAM if the buffer is NULL
ARM GAS  C:\Users\labadmin\AppData\Local\Temp\ccgPQNOg.s 			page 11


 274:Generated_Source\PSoC5/CyFlash.c **** *
 275:Generated_Source\PSoC5/CyFlash.c **** *******************************************************************************/
 276:Generated_Source\PSoC5/CyFlash.c **** cystatus CySetFlashEEBuffer(uint8 * buffer) 
 277:Generated_Source\PSoC5/CyFlash.c **** {
 275              		.loc 1 277 0
 276              		.cfi_startproc
 277              		@ args = 0, pretend = 0, frame = 0
 278              		@ frame_needed = 0, uses_anonymous_args = 0
 279              	.LVL22:
 280 0000 38B5     		push	{r3, r4, r5, lr}
 281              		.cfi_def_cfa_offset 16
 282              		.cfi_offset 3, -16
 283              		.cfi_offset 4, -12
 284              		.cfi_offset 5, -8
 285              		.cfi_offset 14, -4
 286              		.loc 1 277 0
 287 0002 0546     		mov	r5, r0
 278:Generated_Source\PSoC5/CyFlash.c ****     cystatus status = CYRET_SUCCESS;
 279:Generated_Source\PSoC5/CyFlash.c **** 
 280:Generated_Source\PSoC5/CyFlash.c ****     CySpcStart();
 288              		.loc 1 280 0
 289 0004 FFF7FEFF 		bl	CySpcStart
 290              	.LVL23:
 281:Generated_Source\PSoC5/CyFlash.c **** 
 282:Generated_Source\PSoC5/CyFlash.c ****     #if(CYDEV_ECC_ENABLE == 0)
 283:Generated_Source\PSoC5/CyFlash.c **** 
 284:Generated_Source\PSoC5/CyFlash.c ****         if(NULL == buffer)
 291              		.loc 1 284 0
 292 0008 4DB1     		cbz	r5, .L41
 285:Generated_Source\PSoC5/CyFlash.c ****         {
 286:Generated_Source\PSoC5/CyFlash.c ****             rowBuffer = rowBuffer;
 287:Generated_Source\PSoC5/CyFlash.c ****             status = CYRET_BAD_PARAM;
 288:Generated_Source\PSoC5/CyFlash.c ****         }
 289:Generated_Source\PSoC5/CyFlash.c ****         else if(CySpcLock() != CYRET_SUCCESS)
 293              		.loc 1 289 0
 294 000a FFF7FEFF 		bl	CySpcLock
 295              	.LVL24:
 296 000e 0446     		mov	r4, r0
 297 0010 38B9     		cbnz	r0, .L42
 290:Generated_Source\PSoC5/CyFlash.c ****         {
 291:Generated_Source\PSoC5/CyFlash.c ****             rowBuffer = rowBuffer;
 292:Generated_Source\PSoC5/CyFlash.c ****             status = CYRET_LOCKED;
 293:Generated_Source\PSoC5/CyFlash.c ****         }
 294:Generated_Source\PSoC5/CyFlash.c ****         else
 295:Generated_Source\PSoC5/CyFlash.c ****         {
 296:Generated_Source\PSoC5/CyFlash.c ****             rowBuffer = buffer;
 298              		.loc 1 296 0
 299 0012 054B     		ldr	r3, .L43
 300 0014 1D60     		str	r5, [r3]
 297:Generated_Source\PSoC5/CyFlash.c ****             CySpcUnlock();
 301              		.loc 1 297 0
 302 0016 FFF7FEFF 		bl	CySpcUnlock
 303              	.LVL25:
 278:Generated_Source\PSoC5/CyFlash.c **** 
 304              		.loc 1 278 0
 305 001a 2046     		mov	r0, r4
 306 001c 38BD     		pop	{r3, r4, r5, pc}
ARM GAS  C:\Users\labadmin\AppData\Local\Temp\ccgPQNOg.s 			page 12


 307              	.LVL26:
 308              	.L41:
 287:Generated_Source\PSoC5/CyFlash.c ****         }
 309              		.loc 1 287 0
 310 001e 0120     		movs	r0, #1
 311 0020 38BD     		pop	{r3, r4, r5, pc}
 312              	.LVL27:
 313              	.L42:
 292:Generated_Source\PSoC5/CyFlash.c ****         }
 314              		.loc 1 292 0
 315 0022 0420     		movs	r0, #4
 316              	.LVL28:
 298:Generated_Source\PSoC5/CyFlash.c ****         }
 299:Generated_Source\PSoC5/CyFlash.c **** 
 300:Generated_Source\PSoC5/CyFlash.c ****     #else
 301:Generated_Source\PSoC5/CyFlash.c **** 
 302:Generated_Source\PSoC5/CyFlash.c ****         /* To suppress warning */
 303:Generated_Source\PSoC5/CyFlash.c ****         buffer = buffer;
 304:Generated_Source\PSoC5/CyFlash.c **** 
 305:Generated_Source\PSoC5/CyFlash.c ****     #endif  /* (CYDEV_ECC_ENABLE == 0u) */
 306:Generated_Source\PSoC5/CyFlash.c **** 
 307:Generated_Source\PSoC5/CyFlash.c ****     return(status);
 308:Generated_Source\PSoC5/CyFlash.c **** }
 317              		.loc 1 308 0
 318 0024 38BD     		pop	{r3, r4, r5, pc}
 319              	.LVL29:
 320              	.L44:
 321 0026 00BF     		.align	2
 322              	.L43:
 323 0028 00000000 		.word	.LANCHOR0
 324              		.cfi_endproc
 325              	.LFE5:
 326              		.size	CySetFlashEEBuffer, .-CySetFlashEEBuffer
 327              		.section	.text.CyWriteRowFull,"ax",%progbits
 328              		.align	1
 329              		.global	CyWriteRowFull
 330              		.thumb
 331              		.thumb_func
 332              		.type	CyWriteRowFull, %function
 333              	CyWriteRowFull:
 334              	.LFB7:
 309:Generated_Source\PSoC5/CyFlash.c **** 
 310:Generated_Source\PSoC5/CyFlash.c **** 
 311:Generated_Source\PSoC5/CyFlash.c **** /*******************************************************************************
 312:Generated_Source\PSoC5/CyFlash.c **** * Function Name: CyWriteRowData
 313:Generated_Source\PSoC5/CyFlash.c **** ****************************************************************************//**
 314:Generated_Source\PSoC5/CyFlash.c **** *
 315:Generated_Source\PSoC5/CyFlash.c **** *  Sends a command to the SPC to load and program a row of data in
 316:Generated_Source\PSoC5/CyFlash.c **** *  Flash or EEPROM.
 317:Generated_Source\PSoC5/CyFlash.c **** *
 318:Generated_Source\PSoC5/CyFlash.c **** *  \param arrayID:    ID of the array to write.
 319:Generated_Source\PSoC5/CyFlash.c **** *   The type of write, Flash or EEPROM, is determined from the array ID.
 320:Generated_Source\PSoC5/CyFlash.c **** *   The arrays in the part are sequential starting at the first ID for the
 321:Generated_Source\PSoC5/CyFlash.c **** *   specific memory type. The array ID for the Flash memory lasts from 0x00 to
 322:Generated_Source\PSoC5/CyFlash.c **** *   0x3F and for the EEPROM memory it lasts from 0x40 to 0x7F.
 323:Generated_Source\PSoC5/CyFlash.c **** *  \param rowAddress: rowAddress of flash row to program.
 324:Generated_Source\PSoC5/CyFlash.c **** *  \param rowData:    Array of bytes to write.
ARM GAS  C:\Users\labadmin\AppData\Local\Temp\ccgPQNOg.s 			page 13


 325:Generated_Source\PSoC5/CyFlash.c **** *
 326:Generated_Source\PSoC5/CyFlash.c **** * \return
 327:Generated_Source\PSoC5/CyFlash.c **** *  status:
 328:Generated_Source\PSoC5/CyFlash.c **** *   CYRET_SUCCESS if successful.
 329:Generated_Source\PSoC5/CyFlash.c **** *   CYRET_LOCKED if the SPC is already in use.
 330:Generated_Source\PSoC5/CyFlash.c **** *   CYRET_CANCELED if command not accepted
 331:Generated_Source\PSoC5/CyFlash.c **** *   CYRET_UNKNOWN if there was an SPC error.
 332:Generated_Source\PSoC5/CyFlash.c **** *
 333:Generated_Source\PSoC5/CyFlash.c **** *******************************************************************************/
 334:Generated_Source\PSoC5/CyFlash.c **** cystatus CyWriteRowData(uint8 arrayId, uint16 rowAddress, const uint8 * rowData) 
 335:Generated_Source\PSoC5/CyFlash.c **** {
 336:Generated_Source\PSoC5/CyFlash.c ****     uint16 rowSize;
 337:Generated_Source\PSoC5/CyFlash.c ****     cystatus status;
 338:Generated_Source\PSoC5/CyFlash.c **** 
 339:Generated_Source\PSoC5/CyFlash.c ****     rowSize = (arrayId > CY_SPC_LAST_FLASH_ARRAYID) ? CYDEV_EEPROM_ROW_SIZE : CYDEV_FLS_ROW_SIZE;
 340:Generated_Source\PSoC5/CyFlash.c ****     status = CyWriteRowFull(arrayId, rowAddress, rowData, rowSize);
 341:Generated_Source\PSoC5/CyFlash.c **** 
 342:Generated_Source\PSoC5/CyFlash.c ****     return(status);
 343:Generated_Source\PSoC5/CyFlash.c **** }
 344:Generated_Source\PSoC5/CyFlash.c **** 
 345:Generated_Source\PSoC5/CyFlash.c **** 
 346:Generated_Source\PSoC5/CyFlash.c **** /*******************************************************************
 347:Generated_Source\PSoC5/CyFlash.c **** * If "Enable Error Correcting Code (ECC)" and "Store Configuration
 348:Generated_Source\PSoC5/CyFlash.c **** * Data in ECC" DWR options are disabled, ECC section is available
 349:Generated_Source\PSoC5/CyFlash.c **** * for user data.
 350:Generated_Source\PSoC5/CyFlash.c **** *******************************************************************/
 351:Generated_Source\PSoC5/CyFlash.c **** #if ((CYDEV_ECC_ENABLE == 0u) && (CYDEV_CONFIGURATION_ECC == 0u))
 352:Generated_Source\PSoC5/CyFlash.c **** 
 353:Generated_Source\PSoC5/CyFlash.c ****     /*******************************************************************************
 354:Generated_Source\PSoC5/CyFlash.c ****     * Function Name: CyWriteRowConfig
 355:Generated_Source\PSoC5/CyFlash.c ****     ****************************************************************************//**
 356:Generated_Source\PSoC5/CyFlash.c ****     *
 357:Generated_Source\PSoC5/CyFlash.c ****     *  Sends a command to the SPC to load and program a row of config data in the
 358:Generated_Source\PSoC5/CyFlash.c ****     *  Flash. This function is only valid for Flash array IDs (not for EEPROM).
 359:Generated_Source\PSoC5/CyFlash.c ****     *
 360:Generated_Source\PSoC5/CyFlash.c ****     *  \param arrayId:      ID of the array to write
 361:Generated_Source\PSoC5/CyFlash.c ****     *   The arrays in the part are sequential starting at the first ID for the
 362:Generated_Source\PSoC5/CyFlash.c ****     *   specific memory type. The array ID for the Flash memory lasts
 363:Generated_Source\PSoC5/CyFlash.c ****     *   from 0x00 to 0x3F.
 364:Generated_Source\PSoC5/CyFlash.c ****     *  \param rowAddress:   The address of the sector to erase.
 365:Generated_Source\PSoC5/CyFlash.c ****     *  \param rowECC:       The array of bytes to write.
 366:Generated_Source\PSoC5/CyFlash.c ****     *
 367:Generated_Source\PSoC5/CyFlash.c ****     * \return
 368:Generated_Source\PSoC5/CyFlash.c ****     *  status:
 369:Generated_Source\PSoC5/CyFlash.c ****     *   CYRET_SUCCESS if successful.
 370:Generated_Source\PSoC5/CyFlash.c ****     *   CYRET_LOCKED if the SPC is already in use.
 371:Generated_Source\PSoC5/CyFlash.c ****     *   CYRET_CANCELED if command not accepted
 372:Generated_Source\PSoC5/CyFlash.c ****     *   CYRET_UNKNOWN if there was an SPC error.
 373:Generated_Source\PSoC5/CyFlash.c ****     *
 374:Generated_Source\PSoC5/CyFlash.c ****     *******************************************************************************/
 375:Generated_Source\PSoC5/CyFlash.c ****     cystatus CyWriteRowConfig(uint8 arrayId, uint16 rowAddress, const uint8 * rowECC)\
 376:Generated_Source\PSoC5/CyFlash.c ****     
 377:Generated_Source\PSoC5/CyFlash.c ****     {
 378:Generated_Source\PSoC5/CyFlash.c ****         cystatus status;
 379:Generated_Source\PSoC5/CyFlash.c **** 
 380:Generated_Source\PSoC5/CyFlash.c ****         status = CyWriteRowFull(arrayId, rowAddress, rowECC, CYDEV_ECC_ROW_SIZE);
 381:Generated_Source\PSoC5/CyFlash.c **** 
ARM GAS  C:\Users\labadmin\AppData\Local\Temp\ccgPQNOg.s 			page 14


 382:Generated_Source\PSoC5/CyFlash.c ****         return (status);
 383:Generated_Source\PSoC5/CyFlash.c ****     }
 384:Generated_Source\PSoC5/CyFlash.c **** 
 385:Generated_Source\PSoC5/CyFlash.c **** #endif  /* ((CYDEV_ECC_ENABLE == 0u) && (CYDEV_CONFIGURATION_ECC == 0u)) */
 386:Generated_Source\PSoC5/CyFlash.c **** 
 387:Generated_Source\PSoC5/CyFlash.c **** 
 388:Generated_Source\PSoC5/CyFlash.c **** 
 389:Generated_Source\PSoC5/CyFlash.c **** /*******************************************************************************
 390:Generated_Source\PSoC5/CyFlash.c **** * Function Name: CyWriteRowFull
 391:Generated_Source\PSoC5/CyFlash.c **** ****************************************************************************//**
 392:Generated_Source\PSoC5/CyFlash.c **** *  Sends a command to the SPC to load and program a row of data in the Flash.
 393:Generated_Source\PSoC5/CyFlash.c **** *  rowData array is expected to contain Flash and ECC data if needed.
 394:Generated_Source\PSoC5/CyFlash.c **** *
 395:Generated_Source\PSoC5/CyFlash.c **** *  \param arrayId:    FLASH or EEPROM array id.
 396:Generated_Source\PSoC5/CyFlash.c **** *  \param rowData:    Pointer to a row of data to write.
 397:Generated_Source\PSoC5/CyFlash.c **** *  \param rowNumber:  Zero based number of the row.
 398:Generated_Source\PSoC5/CyFlash.c **** *  \param rowSize:    Size of the row.
 399:Generated_Source\PSoC5/CyFlash.c **** *
 400:Generated_Source\PSoC5/CyFlash.c **** * \return
 401:Generated_Source\PSoC5/CyFlash.c **** *  CYRET_SUCCESS if successful.
 402:Generated_Source\PSoC5/CyFlash.c **** *  CYRET_LOCKED if the SPC is already in use.
 403:Generated_Source\PSoC5/CyFlash.c **** *  CYRET_CANCELED if command not accepted
 404:Generated_Source\PSoC5/CyFlash.c **** *  CYRET_UNKNOWN if there was an SPC error.
 405:Generated_Source\PSoC5/CyFlash.c **** *
 406:Generated_Source\PSoC5/CyFlash.c **** *******************************************************************************/
 407:Generated_Source\PSoC5/CyFlash.c **** cystatus CyWriteRowFull(uint8 arrayId, uint16 rowNumber, const uint8* rowData, uint16 rowSize) \
 408:Generated_Source\PSoC5/CyFlash.c ****         
 409:Generated_Source\PSoC5/CyFlash.c **** {
 335              		.loc 1 409 0
 336              		.cfi_startproc
 337              		@ args = 0, pretend = 0, frame = 0
 338              		@ frame_needed = 0, uses_anonymous_args = 0
 339              	.LVL30:
 410:Generated_Source\PSoC5/CyFlash.c ****     cystatus status = CYRET_SUCCESS;
 411:Generated_Source\PSoC5/CyFlash.c **** 
 412:Generated_Source\PSoC5/CyFlash.c ****     if((arrayId <=  CY_SPC_LAST_FLASH_ARRAYID) && (arrayId > (CY_FLASH_NUMBER_ARRAYS  + CY_SPC_FIRS
 413:Generated_Source\PSoC5/CyFlash.c ****     {
 414:Generated_Source\PSoC5/CyFlash.c ****         status = CYRET_BAD_PARAM;
 415:Generated_Source\PSoC5/CyFlash.c ****     }
 416:Generated_Source\PSoC5/CyFlash.c **** 
 417:Generated_Source\PSoC5/CyFlash.c ****     if(arrayId > CY_SPC_LAST_EE_ARRAYID)
 418:Generated_Source\PSoC5/CyFlash.c ****     {
 419:Generated_Source\PSoC5/CyFlash.c ****         status = CYRET_BAD_PARAM;
 420:Generated_Source\PSoC5/CyFlash.c ****     }
 421:Generated_Source\PSoC5/CyFlash.c **** 
 422:Generated_Source\PSoC5/CyFlash.c ****     if((arrayId >= CY_SPC_FIRST_EE_ARRAYID) && (arrayId > (CY_FLASH_EEPROM_NUMBER_ARRAYS + CY_SPC_F
 340              		.loc 1 422 0
 341 0000 4128     		cmp	r0, #65
 409:Generated_Source\PSoC5/CyFlash.c ****     cystatus status = CYRET_SUCCESS;
 342              		.loc 1 409 0
 343 0002 F8B5     		push	{r3, r4, r5, r6, r7, lr}
 344              		.cfi_def_cfa_offset 24
 345              		.cfi_offset 3, -24
 346              		.cfi_offset 4, -20
 347              		.cfi_offset 5, -16
 348              		.cfi_offset 6, -12
 349              		.cfi_offset 7, -8
ARM GAS  C:\Users\labadmin\AppData\Local\Temp\ccgPQNOg.s 			page 15


 350              		.cfi_offset 14, -4
 409:Generated_Source\PSoC5/CyFlash.c ****     cystatus status = CYRET_SUCCESS;
 351              		.loc 1 409 0
 352 0004 0546     		mov	r5, r0
 353 0006 0E46     		mov	r6, r1
 354 0008 1746     		mov	r7, r2
 355 000a 1C46     		mov	r4, r3
 356              		.loc 1 422 0
 357 000c 0AD8     		bhi	.L56
 412:Generated_Source\PSoC5/CyFlash.c ****     {
 358              		.loc 1 412 0
 359 000e 411F     		subs	r1, r0, #5
 360              	.LVL31:
 361 0010 3A29     		cmp	r1, #58
 362 0012 8CBF     		ite	hi
 363 0014 0021     		movhi	r1, #0
 364 0016 0121     		movls	r1, #1
 423:Generated_Source\PSoC5/CyFlash.c ****     {
 424:Generated_Source\PSoC5/CyFlash.c ****         status = CYRET_BAD_PARAM;
 425:Generated_Source\PSoC5/CyFlash.c ****     }
 426:Generated_Source\PSoC5/CyFlash.c **** 
 427:Generated_Source\PSoC5/CyFlash.c ****     if(arrayId <=  CY_SPC_LAST_FLASH_ARRAYID)
 365              		.loc 1 427 0
 366 0018 3F28     		cmp	r0, #63
 367 001a 04D8     		bhi	.L46
 428:Generated_Source\PSoC5/CyFlash.c ****     {
 429:Generated_Source\PSoC5/CyFlash.c ****         /* Flash */
 430:Generated_Source\PSoC5/CyFlash.c ****         if(rowNumber > (CY_FLASH_NUMBER_ROWS/CY_FLASH_NUMBER_ARRAYS))
 368              		.loc 1 430 0
 369 001c B6F5807F 		cmp	r6, #256
 370 0020 29D8     		bhi	.L60
 371 0022 05E0     		b	.L48
 372              	.LVL32:
 373              	.L56:
 374 0024 0121     		movs	r1, #1
 375              	.LVL33:
 376              	.L46:
 431:Generated_Source\PSoC5/CyFlash.c ****         {
 432:Generated_Source\PSoC5/CyFlash.c ****             status = CYRET_BAD_PARAM;
 433:Generated_Source\PSoC5/CyFlash.c ****         }
 434:Generated_Source\PSoC5/CyFlash.c ****     }
 435:Generated_Source\PSoC5/CyFlash.c ****     else
 436:Generated_Source\PSoC5/CyFlash.c ****     {
 437:Generated_Source\PSoC5/CyFlash.c ****         /* EEPROM */
 438:Generated_Source\PSoC5/CyFlash.c ****         if(rowNumber > (CY_EEPROM_NUMBER_ROWS/CY_FLASH_EEPROM_NUMBER_ARRAYS))
 439:Generated_Source\PSoC5/CyFlash.c ****         {
 440:Generated_Source\PSoC5/CyFlash.c ****             status = CYRET_BAD_PARAM;
 377              		.loc 1 440 0
 378 0026 812E     		cmp	r6, #129
 379 0028 28BF     		it	cs
 380 002a 0121     		movcs	r1, #1
 381              	.LVL34:
 441:Generated_Source\PSoC5/CyFlash.c ****         }
 442:Generated_Source\PSoC5/CyFlash.c **** 
 443:Generated_Source\PSoC5/CyFlash.c ****         if(CY_EEPROM_SIZEOF_ROW != rowSize)
 382              		.loc 1 443 0
 383 002c 102C     		cmp	r4, #16
ARM GAS  C:\Users\labadmin\AppData\Local\Temp\ccgPQNOg.s 			page 16


 384 002e 22D1     		bne	.L60
 385              	.LVL35:
 386              	.L48:
 444:Generated_Source\PSoC5/CyFlash.c ****         {
 445:Generated_Source\PSoC5/CyFlash.c ****             status = CYRET_BAD_PARAM;
 446:Generated_Source\PSoC5/CyFlash.c ****         }
 447:Generated_Source\PSoC5/CyFlash.c ****     }
 448:Generated_Source\PSoC5/CyFlash.c **** 
 449:Generated_Source\PSoC5/CyFlash.c ****     if(rowData == NULL)
 387              		.loc 1 449 0
 388 0030 0FB3     		cbz	r7, .L60
 450:Generated_Source\PSoC5/CyFlash.c ****     {
 451:Generated_Source\PSoC5/CyFlash.c ****         status = CYRET_BAD_PARAM;
 452:Generated_Source\PSoC5/CyFlash.c ****     }
 453:Generated_Source\PSoC5/CyFlash.c **** 
 454:Generated_Source\PSoC5/CyFlash.c **** 
 455:Generated_Source\PSoC5/CyFlash.c ****     if(status == CYRET_SUCCESS)
 389              		.loc 1 455 0
 390 0032 01BB     		cbnz	r1, .L60
 456:Generated_Source\PSoC5/CyFlash.c ****     {
 457:Generated_Source\PSoC5/CyFlash.c ****         if(CySpcLock() == CYRET_SUCCESS)
 391              		.loc 1 457 0
 392 0034 FFF7FEFF 		bl	CySpcLock
 393              	.LVL36:
 394 0038 F8B9     		cbnz	r0, .L61
 395              	.LVL37:
 396              	.LBB12:
 397              	.LBB13:
 458:Generated_Source\PSoC5/CyFlash.c ****         {
 459:Generated_Source\PSoC5/CyFlash.c ****             /* Load row data into SPC internal latch */
 460:Generated_Source\PSoC5/CyFlash.c ****             status = CySpcLoadRowFull(arrayId, rowNumber, rowData, rowSize);
 398              		.loc 1 460 0
 399 003a 2346     		mov	r3, r4
 400 003c 2846     		mov	r0, r5
 401 003e 3146     		mov	r1, r6
 402 0040 3A46     		mov	r2, r7
 403 0042 FFF7FEFF 		bl	CySpcLoadRowFull
 404              	.LVL38:
 461:Generated_Source\PSoC5/CyFlash.c **** 
 462:Generated_Source\PSoC5/CyFlash.c ****             if(CYRET_STARTED == status)
 405              		.loc 1 462 0
 406 0046 0728     		cmp	r0, #7
 460:Generated_Source\PSoC5/CyFlash.c **** 
 407              		.loc 1 460 0
 408 0048 0446     		mov	r4, r0
 409              	.LVL39:
 410              		.loc 1 462 0
 411 004a 11D1     		bne	.L51
 412              	.LVL40:
 413              	.L50:
 463:Generated_Source\PSoC5/CyFlash.c ****             {
 464:Generated_Source\PSoC5/CyFlash.c ****                 while(CY_SPC_BUSY)
 414              		.loc 1 464 0
 415 004c 1B4B     		ldr	r3, .L71
 416 004e 1A78     		ldrb	r2, [r3]	@ zero_extendqisi2
 417 0050 1F46     		mov	r7, r3
 418 0052 12F0020F 		tst	r2, #2
ARM GAS  C:\Users\labadmin\AppData\Local\Temp\ccgPQNOg.s 			page 17


 419 0056 03D1     		bne	.L69
 465:Generated_Source\PSoC5/CyFlash.c ****                 {
 466:Generated_Source\PSoC5/CyFlash.c ****                     /* Wait for SPC to finish and get SPC status */
 467:Generated_Source\PSoC5/CyFlash.c ****                     CyDelayUs(1u);
 420              		.loc 1 467 0
 421 0058 0120     		movs	r0, #1
 422 005a FFF7FEFF 		bl	CyDelayUs
 423              	.LVL41:
 424 005e F5E7     		b	.L50
 425              	.L69:
 468:Generated_Source\PSoC5/CyFlash.c ****                 }
 469:Generated_Source\PSoC5/CyFlash.c **** 
 470:Generated_Source\PSoC5/CyFlash.c ****                 /* Hide SPC status */
 471:Generated_Source\PSoC5/CyFlash.c ****                 if(CY_SPC_STATUS_SUCCESS == CY_SPC_READ_STATUS)
 426              		.loc 1 471 0
 427 0060 1A78     		ldrb	r2, [r3]	@ zero_extendqisi2
 428 0062 9007     		lsls	r0, r2, #30
 429 0064 02D5     		bpl	.L63
 430 0066 1B78     		ldrb	r3, [r3]	@ zero_extendqisi2
 431 0068 9B08     		lsrs	r3, r3, #2
 432 006a 08D0     		beq	.L53
 433              	.L63:
 472:Generated_Source\PSoC5/CyFlash.c ****                 {
 473:Generated_Source\PSoC5/CyFlash.c ****                     status = CYRET_SUCCESS;
 474:Generated_Source\PSoC5/CyFlash.c ****                 }
 475:Generated_Source\PSoC5/CyFlash.c ****                 else
 476:Generated_Source\PSoC5/CyFlash.c ****                 {
 477:Generated_Source\PSoC5/CyFlash.c ****                     status = CYRET_UNKNOWN;
 478:Generated_Source\PSoC5/CyFlash.c ****                 }
 479:Generated_Source\PSoC5/CyFlash.c **** 
 480:Generated_Source\PSoC5/CyFlash.c ****                 if(CYRET_SUCCESS == status)
 481:Generated_Source\PSoC5/CyFlash.c ****                 {
 482:Generated_Source\PSoC5/CyFlash.c ****                     /* Erase and program flash with data from SPC interval latch */
 483:Generated_Source\PSoC5/CyFlash.c ****                     status = CySpcWriteRow(arrayId, rowNumber, dieTemperature[0u], dieTemperature[1
 484:Generated_Source\PSoC5/CyFlash.c **** 
 485:Generated_Source\PSoC5/CyFlash.c ****                     if(CYRET_STARTED == status)
 486:Generated_Source\PSoC5/CyFlash.c ****                     {
 487:Generated_Source\PSoC5/CyFlash.c ****                         while(CY_SPC_BUSY)
 488:Generated_Source\PSoC5/CyFlash.c ****                         {
 489:Generated_Source\PSoC5/CyFlash.c ****                             /* Wait for SPC to finish and get SPC status */
 490:Generated_Source\PSoC5/CyFlash.c ****                             CyDelayUs(1u);
 491:Generated_Source\PSoC5/CyFlash.c ****                         }
 492:Generated_Source\PSoC5/CyFlash.c **** 
 493:Generated_Source\PSoC5/CyFlash.c ****                         /* Hide SPC status */
 494:Generated_Source\PSoC5/CyFlash.c ****                         if(CY_SPC_STATUS_SUCCESS == CY_SPC_READ_STATUS)
 495:Generated_Source\PSoC5/CyFlash.c ****                         {
 496:Generated_Source\PSoC5/CyFlash.c ****                             status = CYRET_SUCCESS;
 497:Generated_Source\PSoC5/CyFlash.c ****                         }
 498:Generated_Source\PSoC5/CyFlash.c ****                         else
 499:Generated_Source\PSoC5/CyFlash.c ****                         {
 500:Generated_Source\PSoC5/CyFlash.c ****                             status = CYRET_UNKNOWN;
 434              		.loc 1 500 0
 435 006c 4FF0FF34 		mov	r4, #-1
 436              	.LVL42:
 437              	.L51:
 501:Generated_Source\PSoC5/CyFlash.c ****                         }
 502:Generated_Source\PSoC5/CyFlash.c ****                     }
ARM GAS  C:\Users\labadmin\AppData\Local\Temp\ccgPQNOg.s 			page 18


 503:Generated_Source\PSoC5/CyFlash.c ****                 }
 504:Generated_Source\PSoC5/CyFlash.c ****             }
 505:Generated_Source\PSoC5/CyFlash.c ****             CySpcUnlock();
 438              		.loc 1 505 0
 439 0070 FFF7FEFF 		bl	CySpcUnlock
 440              	.LVL43:
 441 0074 1FE0     		b	.L68
 442              	.LVL44:
 443              	.L60:
 444              	.LBE13:
 445              	.LBE12:
 446 0076 0124     		movs	r4, #1
 447 0078 1DE0     		b	.L68
 448              	.LVL45:
 449              	.L61:
 506:Generated_Source\PSoC5/CyFlash.c ****         }   /* if(CySpcLock() == CYRET_SUCCESS) */
 507:Generated_Source\PSoC5/CyFlash.c ****         else
 508:Generated_Source\PSoC5/CyFlash.c ****         {
 509:Generated_Source\PSoC5/CyFlash.c ****             status = CYRET_LOCKED;
 450              		.loc 1 509 0
 451 007a 0424     		movs	r4, #4
 452              	.LVL46:
 453 007c 1BE0     		b	.L68
 454              	.LVL47:
 455              	.L53:
 456              	.LBB15:
 457              	.LBB14:
 483:Generated_Source\PSoC5/CyFlash.c **** 
 458              		.loc 1 483 0
 459 007e 104B     		ldr	r3, .L71+4
 460 0080 2846     		mov	r0, r5
 461 0082 1A78     		ldrb	r2, [r3]	@ zero_extendqisi2
 462 0084 3146     		mov	r1, r6
 463 0086 5B78     		ldrb	r3, [r3, #1]	@ zero_extendqisi2
 464 0088 FFF7FEFF 		bl	CySpcWriteRow
 465              	.LVL48:
 485:Generated_Source\PSoC5/CyFlash.c ****                     {
 466              		.loc 1 485 0
 467 008c 0728     		cmp	r0, #7
 483:Generated_Source\PSoC5/CyFlash.c **** 
 468              		.loc 1 483 0
 469 008e 0446     		mov	r4, r0
 470              	.LVL49:
 485:Generated_Source\PSoC5/CyFlash.c ****                     {
 471              		.loc 1 485 0
 472 0090 EED1     		bne	.L51
 473              	.LVL50:
 474              	.L55:
 487:Generated_Source\PSoC5/CyFlash.c ****                         {
 475              		.loc 1 487 0
 476 0092 3A78     		ldrb	r2, [r7]	@ zero_extendqisi2
 477 0094 094B     		ldr	r3, .L71
 478 0096 9107     		lsls	r1, r2, #30
 479 0098 03D4     		bmi	.L70
 490:Generated_Source\PSoC5/CyFlash.c ****                         }
 480              		.loc 1 490 0
 481 009a 0120     		movs	r0, #1
ARM GAS  C:\Users\labadmin\AppData\Local\Temp\ccgPQNOg.s 			page 19


 482 009c FFF7FEFF 		bl	CyDelayUs
 483              	.LVL51:
 484 00a0 F7E7     		b	.L55
 485              	.L70:
 494:Generated_Source\PSoC5/CyFlash.c ****                         {
 486              		.loc 1 494 0
 487 00a2 1A78     		ldrb	r2, [r3]	@ zero_extendqisi2
 488 00a4 9207     		lsls	r2, r2, #30
 489 00a6 E1D5     		bpl	.L63
 490 00a8 1B78     		ldrb	r3, [r3]	@ zero_extendqisi2
 491 00aa 9B08     		lsrs	r3, r3, #2
 492 00ac 14BF     		ite	ne
 493 00ae 4FF0FF34 		movne	r4, #-1
 494              	.LVL52:
 495 00b2 0024     		moveq	r4, #0
 496 00b4 DCE7     		b	.L51
 497              	.LVL53:
 498              	.L68:
 499              	.LBE14:
 500              	.LBE15:
 510:Generated_Source\PSoC5/CyFlash.c ****         }
 511:Generated_Source\PSoC5/CyFlash.c ****     }
 512:Generated_Source\PSoC5/CyFlash.c **** 
 513:Generated_Source\PSoC5/CyFlash.c ****     return(status);
 514:Generated_Source\PSoC5/CyFlash.c **** }
 501              		.loc 1 514 0
 502 00b6 2046     		mov	r0, r4
 503 00b8 F8BD     		pop	{r3, r4, r5, r6, r7, pc}
 504              	.L72:
 505 00ba 00BF     		.align	2
 506              	.L71:
 507 00bc 22470040 		.word	1073760034
 508 00c0 00000000 		.word	dieTemperature
 509              		.cfi_endproc
 510              	.LFE7:
 511              		.size	CyWriteRowFull, .-CyWriteRowFull
 512              		.section	.text.CyWriteRowData,"ax",%progbits
 513              		.align	1
 514              		.global	CyWriteRowData
 515              		.thumb
 516              		.thumb_func
 517              		.type	CyWriteRowData, %function
 518              	CyWriteRowData:
 519              	.LFB6:
 335:Generated_Source\PSoC5/CyFlash.c ****     uint16 rowSize;
 520              		.loc 1 335 0
 521              		.cfi_startproc
 522              		@ args = 0, pretend = 0, frame = 0
 523              		@ frame_needed = 0, uses_anonymous_args = 0
 524              		@ link register save eliminated.
 525              	.LVL54:
 339:Generated_Source\PSoC5/CyFlash.c ****     status = CyWriteRowFull(arrayId, rowAddress, rowData, rowSize);
 526              		.loc 1 339 0
 527 0000 3F28     		cmp	r0, #63
 528              	.LVL55:
 340:Generated_Source\PSoC5/CyFlash.c **** 
 529              		.loc 1 340 0
ARM GAS  C:\Users\labadmin\AppData\Local\Temp\ccgPQNOg.s 			page 20


 530 0002 8CBF     		ite	hi
 531 0004 1023     		movhi	r3, #16
 532 0006 4FF48073 		movls	r3, #256
 533 000a FFF7FEBF 		b	CyWriteRowFull
 534              	.LVL56:
 535              		.cfi_endproc
 536              	.LFE6:
 537              		.size	CyWriteRowData, .-CyWriteRowData
 538              		.section	.text.CyFlash_SetWaitCycles,"ax",%progbits
 539              		.align	1
 540              		.global	CyFlash_SetWaitCycles
 541              		.thumb
 542              		.thumb_func
 543              		.type	CyFlash_SetWaitCycles, %function
 544              	CyFlash_SetWaitCycles:
 545              	.LFB8:
 515:Generated_Source\PSoC5/CyFlash.c **** 
 516:Generated_Source\PSoC5/CyFlash.c **** 
 517:Generated_Source\PSoC5/CyFlash.c **** /*******************************************************************************
 518:Generated_Source\PSoC5/CyFlash.c **** * Function Name: CyFlash_SetWaitCycles
 519:Generated_Source\PSoC5/CyFlash.c **** ****************************************************************************//**
 520:Generated_Source\PSoC5/CyFlash.c **** *
 521:Generated_Source\PSoC5/CyFlash.c **** *  Sets the number of clock cycles the cache will wait before it samples data
 522:Generated_Source\PSoC5/CyFlash.c **** *  coming back from the Flash. This function must be called before increasing
 523:Generated_Source\PSoC5/CyFlash.c **** *  the CPU clock frequency. It can optionally be called after lowering the CPU
 524:Generated_Source\PSoC5/CyFlash.c **** *  clock frequency in order to improve the CPU performance.
 525:Generated_Source\PSoC5/CyFlash.c **** *
 526:Generated_Source\PSoC5/CyFlash.c **** *  \param uint8 freq:
 527:Generated_Source\PSoC5/CyFlash.c **** *   Frequency of operation in Megahertz.
 528:Generated_Source\PSoC5/CyFlash.c **** *
 529:Generated_Source\PSoC5/CyFlash.c **** *******************************************************************************/
 530:Generated_Source\PSoC5/CyFlash.c **** void CyFlash_SetWaitCycles(uint8 freq) 
 531:Generated_Source\PSoC5/CyFlash.c **** {
 546              		.loc 1 531 0
 547              		.cfi_startproc
 548              		@ args = 0, pretend = 0, frame = 0
 549              		@ frame_needed = 0, uses_anonymous_args = 0
 550              	.LVL57:
 551 0000 38B5     		push	{r3, r4, r5, lr}
 552              		.cfi_def_cfa_offset 16
 553              		.cfi_offset 3, -16
 554              		.cfi_offset 4, -12
 555              		.cfi_offset 5, -8
 556              		.cfi_offset 14, -4
 557              		.loc 1 531 0
 558 0002 0446     		mov	r4, r0
 532:Generated_Source\PSoC5/CyFlash.c ****     uint8 interruptState;
 533:Generated_Source\PSoC5/CyFlash.c **** 
 534:Generated_Source\PSoC5/CyFlash.c ****     /* Save current global interrupt enable and disable it */
 535:Generated_Source\PSoC5/CyFlash.c ****     interruptState = CyEnterCriticalSection();
 559              		.loc 1 535 0
 560 0004 FFF7FEFF 		bl	CyEnterCriticalSection
 561              	.LVL58:
 536:Generated_Source\PSoC5/CyFlash.c **** 
 537:Generated_Source\PSoC5/CyFlash.c ****     /***************************************************************************
 538:Generated_Source\PSoC5/CyFlash.c ****     * The number of clock cycles the cache will wait before it samples data
 539:Generated_Source\PSoC5/CyFlash.c ****     * coming back from the Flash must be equal or greater to to the CPU frequency
ARM GAS  C:\Users\labadmin\AppData\Local\Temp\ccgPQNOg.s 			page 21


 540:Generated_Source\PSoC5/CyFlash.c ****     * outlined in clock cycles.
 541:Generated_Source\PSoC5/CyFlash.c ****     ***************************************************************************/
 542:Generated_Source\PSoC5/CyFlash.c **** 
 543:Generated_Source\PSoC5/CyFlash.c ****     if (freq < CY_FLASH_CACHE_WS_1_FREQ_MAX)
 562              		.loc 1 543 0
 563 0008 0F2C     		cmp	r4, #15
 535:Generated_Source\PSoC5/CyFlash.c **** 
 564              		.loc 1 535 0
 565 000a 0546     		mov	r5, r0
 566              	.LVL59:
 567              		.loc 1 543 0
 568 000c 06D8     		bhi	.L77
 544:Generated_Source\PSoC5/CyFlash.c ****     {
 545:Generated_Source\PSoC5/CyFlash.c ****         CY_FLASH_CONTROL_REG = (CY_FLASH_CONTROL_REG & (uint8)(~CY_FLASH_CACHE_WS_VALUE_MASK)) |
 569              		.loc 1 545 0
 570 000e 194A     		ldr	r2, .L84
 571 0010 1378     		ldrb	r3, [r2]	@ zero_extendqisi2
 572 0012 03F01F03 		and	r3, r3, #31
 573 0016 43F04003 		orr	r3, r3, #64
 574 001a 07E0     		b	.L83
 575              	.L77:
 546:Generated_Source\PSoC5/CyFlash.c ****                                     CY_FLASH_CACHE_WS_1_VALUE_MASK;
 547:Generated_Source\PSoC5/CyFlash.c ****     }
 548:Generated_Source\PSoC5/CyFlash.c ****     else if (freq < CY_FLASH_CACHE_WS_2_FREQ_MAX)
 576              		.loc 1 548 0
 577 001c 202C     		cmp	r4, #32
 578 001e 07D8     		bhi	.L79
 549:Generated_Source\PSoC5/CyFlash.c ****     {
 550:Generated_Source\PSoC5/CyFlash.c ****         CY_FLASH_CONTROL_REG = (CY_FLASH_CONTROL_REG & (uint8)(~CY_FLASH_CACHE_WS_VALUE_MASK)) |
 579              		.loc 1 550 0
 580 0020 144A     		ldr	r2, .L84
 581 0022 1378     		ldrb	r3, [r2]	@ zero_extendqisi2
 582 0024 03F01F03 		and	r3, r3, #31
 583 0028 43F08003 		orr	r3, r3, #128
 584              	.L83:
 585 002c 1370     		strb	r3, [r2]
 586 002e 1BE0     		b	.L78
 587              	.L79:
 551:Generated_Source\PSoC5/CyFlash.c ****                                     CY_FLASH_CACHE_WS_2_VALUE_MASK;
 552:Generated_Source\PSoC5/CyFlash.c ****     }
 553:Generated_Source\PSoC5/CyFlash.c ****     else if (freq < CY_FLASH_CACHE_WS_3_FREQ_MAX)
 588              		.loc 1 553 0
 589 0030 312C     		cmp	r4, #49
 590 0032 06D8     		bhi	.L80
 554:Generated_Source\PSoC5/CyFlash.c ****     {
 555:Generated_Source\PSoC5/CyFlash.c ****         CY_FLASH_CONTROL_REG = (CY_FLASH_CONTROL_REG & (uint8)(~CY_FLASH_CACHE_WS_VALUE_MASK)) |
 591              		.loc 1 555 0
 592 0034 0F4A     		ldr	r2, .L84
 593 0036 1378     		ldrb	r3, [r2]	@ zero_extendqisi2
 594 0038 03F01F03 		and	r3, r3, #31
 595 003c 43F0C003 		orr	r3, r3, #192
 596 0040 F4E7     		b	.L83
 597              	.L80:
 556:Generated_Source\PSoC5/CyFlash.c ****                                     CY_FLASH_CACHE_WS_3_VALUE_MASK;
 557:Generated_Source\PSoC5/CyFlash.c ****     }
 558:Generated_Source\PSoC5/CyFlash.c **** #if (CY_PSOC5)
 559:Generated_Source\PSoC5/CyFlash.c ****     else if (freq < CY_FLASH_CACHE_WS_4_FREQ_MAX)
ARM GAS  C:\Users\labadmin\AppData\Local\Temp\ccgPQNOg.s 			page 22


 598              		.loc 1 559 0
 599 0042 422C     		cmp	r4, #66
 600 0044 04D8     		bhi	.L81
 560:Generated_Source\PSoC5/CyFlash.c ****     {
 561:Generated_Source\PSoC5/CyFlash.c ****         CY_FLASH_CONTROL_REG = (CY_FLASH_CONTROL_REG & (uint8)(~CY_FLASH_CACHE_WS_VALUE_MASK)) |
 601              		.loc 1 561 0
 602 0046 0B4A     		ldr	r2, .L84
 603 0048 1378     		ldrb	r3, [r2]	@ zero_extendqisi2
 604 004a 03F01F03 		and	r3, r3, #31
 605 004e EDE7     		b	.L83
 606              	.L81:
 562:Generated_Source\PSoC5/CyFlash.c ****                                     CY_FLASH_CACHE_WS_4_VALUE_MASK;
 563:Generated_Source\PSoC5/CyFlash.c ****     }
 564:Generated_Source\PSoC5/CyFlash.c ****     else if (freq <= CY_FLASH_CACHE_WS_5_FREQ_MAX)
 607              		.loc 1 564 0
 608 0050 532C     		cmp	r4, #83
 609 0052 06D8     		bhi	.L82
 565:Generated_Source\PSoC5/CyFlash.c ****     {
 566:Generated_Source\PSoC5/CyFlash.c ****         CY_FLASH_CONTROL_REG = (CY_FLASH_CONTROL_REG & (uint8)(~CY_FLASH_CACHE_WS_VALUE_MASK)) |
 610              		.loc 1 566 0
 611 0054 074A     		ldr	r2, .L84
 612 0056 1378     		ldrb	r3, [r2]	@ zero_extendqisi2
 613 0058 03F01F03 		and	r3, r3, #31
 614 005c 43F02003 		orr	r3, r3, #32
 615 0060 E4E7     		b	.L83
 616              	.L82:
 567:Generated_Source\PSoC5/CyFlash.c ****                                     CY_FLASH_CACHE_WS_5_VALUE_MASK;
 568:Generated_Source\PSoC5/CyFlash.c ****     }
 569:Generated_Source\PSoC5/CyFlash.c **** #endif  /* (CY_PSOC5) */
 570:Generated_Source\PSoC5/CyFlash.c ****     else
 571:Generated_Source\PSoC5/CyFlash.c ****     {
 572:Generated_Source\PSoC5/CyFlash.c ****         /* Halt CPU in debug mode if frequency is invalid */
 573:Generated_Source\PSoC5/CyFlash.c ****         CYASSERT(0u != 0u);
 617              		.loc 1 573 0 discriminator 1
 618 0062 0020     		movs	r0, #0
 619 0064 FFF7FEFF 		bl	CyHalt
 620              	.LVL60:
 621              	.L78:
 574:Generated_Source\PSoC5/CyFlash.c ****     }
 575:Generated_Source\PSoC5/CyFlash.c **** 
 576:Generated_Source\PSoC5/CyFlash.c ****     /* Restore global interrupt enable state */
 577:Generated_Source\PSoC5/CyFlash.c ****     CyExitCriticalSection(interruptState);
 622              		.loc 1 577 0
 623 0068 2846     		mov	r0, r5
 578:Generated_Source\PSoC5/CyFlash.c **** }
 624              		.loc 1 578 0
 625 006a BDE83840 		pop	{r3, r4, r5, lr}
 626              		.cfi_restore 14
 627              		.cfi_restore 5
 628              		.cfi_restore 4
 629              		.cfi_restore 3
 630              		.cfi_def_cfa_offset 0
 631              	.LVL61:
 577:Generated_Source\PSoC5/CyFlash.c **** }
 632              		.loc 1 577 0
 633 006e FFF7FEBF 		b	CyExitCriticalSection
 634              	.LVL62:
ARM GAS  C:\Users\labadmin\AppData\Local\Temp\ccgPQNOg.s 			page 23


 635              	.L85:
 636 0072 00BF     		.align	2
 637              	.L84:
 638 0074 00480040 		.word	1073760256
 639              		.cfi_endproc
 640              	.LFE8:
 641              		.size	CyFlash_SetWaitCycles, .-CyFlash_SetWaitCycles
 642              		.section	.text.CyEEPROM_Start,"ax",%progbits
 643              		.align	1
 644              		.global	CyEEPROM_Start
 645              		.thumb
 646              		.thumb_func
 647              		.type	CyEEPROM_Start, %function
 648              	CyEEPROM_Start:
 649              	.LFB9:
 579:Generated_Source\PSoC5/CyFlash.c **** 
 580:Generated_Source\PSoC5/CyFlash.c **** 
 581:Generated_Source\PSoC5/CyFlash.c **** /*******************************************************************************
 582:Generated_Source\PSoC5/CyFlash.c **** * Function Name: CyEEPROM_Start
 583:Generated_Source\PSoC5/CyFlash.c **** ****************************************************************************//**
 584:Generated_Source\PSoC5/CyFlash.c **** *
 585:Generated_Source\PSoC5/CyFlash.c **** *  Enable the EEPROM.
 586:Generated_Source\PSoC5/CyFlash.c **** *
 587:Generated_Source\PSoC5/CyFlash.c **** *******************************************************************************/
 588:Generated_Source\PSoC5/CyFlash.c **** void CyEEPROM_Start(void) 
 589:Generated_Source\PSoC5/CyFlash.c **** {
 650              		.loc 1 589 0
 651              		.cfi_startproc
 652              		@ args = 0, pretend = 0, frame = 0
 653              		@ frame_needed = 0, uses_anonymous_args = 0
 654 0000 08B5     		push	{r3, lr}
 655              		.cfi_def_cfa_offset 8
 656              		.cfi_offset 3, -8
 657              		.cfi_offset 14, -4
 590:Generated_Source\PSoC5/CyFlash.c ****     uint8 interruptState;
 591:Generated_Source\PSoC5/CyFlash.c **** 
 592:Generated_Source\PSoC5/CyFlash.c ****     interruptState = CyEnterCriticalSection();
 658              		.loc 1 592 0
 659 0002 FFF7FEFF 		bl	CyEnterCriticalSection
 660              	.LVL63:
 593:Generated_Source\PSoC5/CyFlash.c **** 
 594:Generated_Source\PSoC5/CyFlash.c **** 
 595:Generated_Source\PSoC5/CyFlash.c ****     /***************************************************************************
 596:Generated_Source\PSoC5/CyFlash.c ****     * Enable SPC clock. This also internally enables the 36MHz IMO, since this
 597:Generated_Source\PSoC5/CyFlash.c ****     * is required for the SPC to function.
 598:Generated_Source\PSoC5/CyFlash.c ****     ***************************************************************************/
 599:Generated_Source\PSoC5/CyFlash.c ****     CY_FLASH_PM_ACT_CFG0_REG    |= CY_FLASH_PM_ACT_CFG0_EN_CLK_SPC;
 661              		.loc 1 599 0
 662 0006 0E4A     		ldr	r2, .L90
 663 0008 1378     		ldrb	r3, [r2]	@ zero_extendqisi2
 664 000a 43F00803 		orr	r3, r3, #8
 665 000e 1370     		strb	r3, [r2]
 600:Generated_Source\PSoC5/CyFlash.c ****     CY_FLASH_PM_ALTACT_CFG0_REG |= CY_FLASH_PM_ALTACT_CFG0_EN_CLK_SPC;
 666              		.loc 1 600 0
 667 0010 137C     		ldrb	r3, [r2, #16]	@ zero_extendqisi2
 668 0012 43F00803 		orr	r3, r3, #8
 669 0016 1374     		strb	r3, [r2, #16]
ARM GAS  C:\Users\labadmin\AppData\Local\Temp\ccgPQNOg.s 			page 24


 601:Generated_Source\PSoC5/CyFlash.c **** 
 602:Generated_Source\PSoC5/CyFlash.c **** 
 603:Generated_Source\PSoC5/CyFlash.c ****     /***************************************************************************
 604:Generated_Source\PSoC5/CyFlash.c ****     * The wake count defines the number of Bus Clock cycles it takes for the
 605:Generated_Source\PSoC5/CyFlash.c ****     * flash or EEPROM to wake up from a low power mode independent of the chip
 606:Generated_Source\PSoC5/CyFlash.c ****     * power mode. Wake up time for these blocks is 5 us.
 607:Generated_Source\PSoC5/CyFlash.c ****     * The granularity of this register is 2 Bus Clock cycles, so a value of 0x1E
 608:Generated_Source\PSoC5/CyFlash.c ****     * (30d) defines the wake up time as 60 cycles of the Bus Clock.
 609:Generated_Source\PSoC5/CyFlash.c ****     * This register needs to be written with a value dependent on the Bus Clock
 610:Generated_Source\PSoC5/CyFlash.c ****     * frequency so that the duration of the cycles is equal to or greater than
 611:Generated_Source\PSoC5/CyFlash.c ****     * the 5 us delay required.
 612:Generated_Source\PSoC5/CyFlash.c ****     ***************************************************************************/
 613:Generated_Source\PSoC5/CyFlash.c ****     CY_FLASH_SPC_FM_EE_WAKE_CNT_REG = CY_FLASH_SPC_FM_EE_WAKE_CNT_80MHZ;
 670              		.loc 1 613 0
 671 0018 0A4B     		ldr	r3, .L90+4
 672 001a C822     		movs	r2, #200
 673 001c 1A70     		strb	r2, [r3]
 614:Generated_Source\PSoC5/CyFlash.c **** 
 615:Generated_Source\PSoC5/CyFlash.c **** 
 616:Generated_Source\PSoC5/CyFlash.c ****     /***************************************************************************
 617:Generated_Source\PSoC5/CyFlash.c ****     * Enable EEPROM. Re-enabling an EEPROM macro takes 5us. During this time,
 618:Generated_Source\PSoC5/CyFlash.c ****     * the EE will not acknowledge a PHUB request.
 619:Generated_Source\PSoC5/CyFlash.c ****     ***************************************************************************/
 620:Generated_Source\PSoC5/CyFlash.c ****     CY_FLASH_PM_ACT_CFG12_REG    |= CY_FLASH_PM_ACT_CFG12_EN_EE;
 674              		.loc 1 620 0
 675 001e 0A4A     		ldr	r2, .L90+8
 676 0020 1378     		ldrb	r3, [r2]	@ zero_extendqisi2
 677 0022 43F01003 		orr	r3, r3, #16
 678 0026 1370     		strb	r3, [r2]
 621:Generated_Source\PSoC5/CyFlash.c ****     CY_FLASH_PM_ALTACT_CFG12_REG |= CY_FLASH_PM_ALTACT_CFG12_EN_EE;
 679              		.loc 1 621 0
 680 0028 137C     		ldrb	r3, [r2, #16]	@ zero_extendqisi2
 681 002a 43F01003 		orr	r3, r3, #16
 682 002e 1374     		strb	r3, [r2, #16]
 683              	.L87:
 622:Generated_Source\PSoC5/CyFlash.c **** 
 623:Generated_Source\PSoC5/CyFlash.c ****     while(0u == (CY_FLASH_SPC_FM_EE_CR_REG & CY_FLASH_EE_EE_AWAKE))
 684              		.loc 1 623 0 discriminator 1
 685 0030 064B     		ldr	r3, .L90+12
 686 0032 1B78     		ldrb	r3, [r3]	@ zero_extendqisi2
 687 0034 9B06     		lsls	r3, r3, #26
 688 0036 FBD5     		bpl	.L87
 624:Generated_Source\PSoC5/CyFlash.c ****     {
 625:Generated_Source\PSoC5/CyFlash.c ****         /* Non-zero status denotes that the EEPROM/Flash is awake & powered. */
 626:Generated_Source\PSoC5/CyFlash.c ****     }
 627:Generated_Source\PSoC5/CyFlash.c **** 
 628:Generated_Source\PSoC5/CyFlash.c ****     CyExitCriticalSection(interruptState);
 629:Generated_Source\PSoC5/CyFlash.c **** }
 689              		.loc 1 629 0
 690 0038 BDE80840 		pop	{r3, lr}
 691              		.cfi_restore 14
 692              		.cfi_restore 3
 693              		.cfi_def_cfa_offset 0
 628:Generated_Source\PSoC5/CyFlash.c **** }
 694              		.loc 1 628 0
 695 003c FFF7FEBF 		b	CyExitCriticalSection
 696              	.LVL64:
ARM GAS  C:\Users\labadmin\AppData\Local\Temp\ccgPQNOg.s 			page 25


 697              	.L91:
 698              		.align	2
 699              	.L90:
 700 0040 A0430040 		.word	1073759136
 701 0044 01470040 		.word	1073760001
 702 0048 AC430040 		.word	1073759148
 703 004c 00470040 		.word	1073760000
 704              		.cfi_endproc
 705              	.LFE9:
 706              		.size	CyEEPROM_Start, .-CyEEPROM_Start
 707              		.section	.text.CyEEPROM_Stop,"ax",%progbits
 708              		.align	1
 709              		.global	CyEEPROM_Stop
 710              		.thumb
 711              		.thumb_func
 712              		.type	CyEEPROM_Stop, %function
 713              	CyEEPROM_Stop:
 714              	.LFB10:
 630:Generated_Source\PSoC5/CyFlash.c **** 
 631:Generated_Source\PSoC5/CyFlash.c **** 
 632:Generated_Source\PSoC5/CyFlash.c **** /*******************************************************************************
 633:Generated_Source\PSoC5/CyFlash.c **** * Function Name: CyEEPROM_Stop
 634:Generated_Source\PSoC5/CyFlash.c **** ****************************************************************************//**
 635:Generated_Source\PSoC5/CyFlash.c **** *
 636:Generated_Source\PSoC5/CyFlash.c **** *  Disable the EEPROM.
 637:Generated_Source\PSoC5/CyFlash.c **** *
 638:Generated_Source\PSoC5/CyFlash.c **** *******************************************************************************/
 639:Generated_Source\PSoC5/CyFlash.c **** void CyEEPROM_Stop (void) 
 640:Generated_Source\PSoC5/CyFlash.c **** {
 715              		.loc 1 640 0
 716              		.cfi_startproc
 717              		@ args = 0, pretend = 0, frame = 0
 718              		@ frame_needed = 0, uses_anonymous_args = 0
 719 0000 08B5     		push	{r3, lr}
 720              		.cfi_def_cfa_offset 8
 721              		.cfi_offset 3, -8
 722              		.cfi_offset 14, -4
 641:Generated_Source\PSoC5/CyFlash.c ****     uint8 interruptState;
 642:Generated_Source\PSoC5/CyFlash.c **** 
 643:Generated_Source\PSoC5/CyFlash.c ****     interruptState = CyEnterCriticalSection();
 723              		.loc 1 643 0
 724 0002 FFF7FEFF 		bl	CyEnterCriticalSection
 725              	.LVL65:
 644:Generated_Source\PSoC5/CyFlash.c **** 
 645:Generated_Source\PSoC5/CyFlash.c ****     CY_FLASH_PM_ACT_CFG12_REG    &= ((uint8)(~CY_FLASH_PM_ACT_CFG12_EN_EE));
 726              		.loc 1 645 0
 727 0006 064A     		ldr	r2, .L93
 728 0008 1378     		ldrb	r3, [r2]	@ zero_extendqisi2
 729 000a 03F0EF03 		and	r3, r3, #239
 730 000e 1370     		strb	r3, [r2]
 646:Generated_Source\PSoC5/CyFlash.c ****     CY_FLASH_PM_ALTACT_CFG12_REG &= ((uint8)(~CY_FLASH_PM_ALTACT_CFG12_EN_EE));
 731              		.loc 1 646 0
 732 0010 137C     		ldrb	r3, [r2, #16]	@ zero_extendqisi2
 733 0012 03F0EF03 		and	r3, r3, #239
 734 0016 1374     		strb	r3, [r2, #16]
 647:Generated_Source\PSoC5/CyFlash.c **** 
 648:Generated_Source\PSoC5/CyFlash.c ****     CyExitCriticalSection(interruptState);
ARM GAS  C:\Users\labadmin\AppData\Local\Temp\ccgPQNOg.s 			page 26


 649:Generated_Source\PSoC5/CyFlash.c **** }
 735              		.loc 1 649 0
 736 0018 BDE80840 		pop	{r3, lr}
 737              		.cfi_restore 14
 738              		.cfi_restore 3
 739              		.cfi_def_cfa_offset 0
 648:Generated_Source\PSoC5/CyFlash.c **** }
 740              		.loc 1 648 0
 741 001c FFF7FEBF 		b	CyExitCriticalSection
 742              	.LVL66:
 743              	.L94:
 744              		.align	2
 745              	.L93:
 746 0020 AC430040 		.word	1073759148
 747              		.cfi_endproc
 748              	.LFE10:
 749              		.size	CyEEPROM_Stop, .-CyEEPROM_Stop
 750              		.section	.text.CyEEPROM_ReadReserve,"ax",%progbits
 751              		.align	1
 752              		.global	CyEEPROM_ReadReserve
 753              		.thumb
 754              		.thumb_func
 755              		.type	CyEEPROM_ReadReserve, %function
 756              	CyEEPROM_ReadReserve:
 757              	.LFB11:
 650:Generated_Source\PSoC5/CyFlash.c **** 
 651:Generated_Source\PSoC5/CyFlash.c **** 
 652:Generated_Source\PSoC5/CyFlash.c **** /*******************************************************************************
 653:Generated_Source\PSoC5/CyFlash.c **** * Function Name: CyEEPROM_ReadReserve
 654:Generated_Source\PSoC5/CyFlash.c **** ****************************************************************************//**
 655:Generated_Source\PSoC5/CyFlash.c **** *
 656:Generated_Source\PSoC5/CyFlash.c **** *  Request access to the EEPROM for reading and wait until access is available.
 657:Generated_Source\PSoC5/CyFlash.c **** *
 658:Generated_Source\PSoC5/CyFlash.c **** *******************************************************************************/
 659:Generated_Source\PSoC5/CyFlash.c **** void CyEEPROM_ReadReserve(void) 
 660:Generated_Source\PSoC5/CyFlash.c **** {
 758              		.loc 1 660 0
 759              		.cfi_startproc
 760              		@ args = 0, pretend = 0, frame = 0
 761              		@ frame_needed = 0, uses_anonymous_args = 0
 762              		@ link register save eliminated.
 661:Generated_Source\PSoC5/CyFlash.c ****     /* Make request for PHUB to have access */
 662:Generated_Source\PSoC5/CyFlash.c ****     CY_FLASH_EE_SCR_REG |= CY_FLASH_EE_SCR_AHB_EE_REQ;
 763              		.loc 1 662 0
 764 0000 044B     		ldr	r3, .L99
 765 0002 1A78     		ldrb	r2, [r3]	@ zero_extendqisi2
 766 0004 42F00102 		orr	r2, r2, #1
 767 0008 1A70     		strb	r2, [r3]
 768              	.L96:
 663:Generated_Source\PSoC5/CyFlash.c **** 
 664:Generated_Source\PSoC5/CyFlash.c ****     while (0u == (CY_FLASH_EE_SCR_REG & CY_FLASH_EE_SCR_AHB_EE_ACK))
 769              		.loc 1 664 0 discriminator 1
 770 000a 1A78     		ldrb	r2, [r3]	@ zero_extendqisi2
 771 000c 9207     		lsls	r2, r2, #30
 772 000e FCD5     		bpl	.L96
 665:Generated_Source\PSoC5/CyFlash.c ****     {
 666:Generated_Source\PSoC5/CyFlash.c ****         /* Wait for acknowledgment from PHUB */
ARM GAS  C:\Users\labadmin\AppData\Local\Temp\ccgPQNOg.s 			page 27


 667:Generated_Source\PSoC5/CyFlash.c ****     }
 668:Generated_Source\PSoC5/CyFlash.c **** }
 773              		.loc 1 668 0
 774 0010 7047     		bx	lr
 775              	.L100:
 776 0012 00BF     		.align	2
 777              	.L99:
 778 0014 02470040 		.word	1073760002
 779              		.cfi_endproc
 780              	.LFE11:
 781              		.size	CyEEPROM_ReadReserve, .-CyEEPROM_ReadReserve
 782              		.section	.text.CyEEPROM_ReadRelease,"ax",%progbits
 783              		.align	1
 784              		.global	CyEEPROM_ReadRelease
 785              		.thumb
 786              		.thumb_func
 787              		.type	CyEEPROM_ReadRelease, %function
 788              	CyEEPROM_ReadRelease:
 789              	.LFB12:
 669:Generated_Source\PSoC5/CyFlash.c **** 
 670:Generated_Source\PSoC5/CyFlash.c **** 
 671:Generated_Source\PSoC5/CyFlash.c **** /*******************************************************************************
 672:Generated_Source\PSoC5/CyFlash.c **** * Function Name: CyEEPROM_ReadRelease
 673:Generated_Source\PSoC5/CyFlash.c **** ****************************************************************************//**
 674:Generated_Source\PSoC5/CyFlash.c **** *
 675:Generated_Source\PSoC5/CyFlash.c **** *  Release the read reservation of the EEPROM.
 676:Generated_Source\PSoC5/CyFlash.c **** *
 677:Generated_Source\PSoC5/CyFlash.c **** *******************************************************************************/
 678:Generated_Source\PSoC5/CyFlash.c **** void CyEEPROM_ReadRelease(void) 
 679:Generated_Source\PSoC5/CyFlash.c **** {
 790              		.loc 1 679 0
 791              		.cfi_startproc
 792              		@ args = 0, pretend = 0, frame = 0
 793              		@ frame_needed = 0, uses_anonymous_args = 0
 794              		@ link register save eliminated.
 680:Generated_Source\PSoC5/CyFlash.c ****     CY_FLASH_EE_SCR_REG &= (uint8)(~CY_FLASH_EE_SCR_AHB_EE_REQ);
 795              		.loc 1 680 0
 796 0000 024A     		ldr	r2, .L102
 797 0002 1378     		ldrb	r3, [r2]	@ zero_extendqisi2
 798 0004 03F0FE03 		and	r3, r3, #254
 799 0008 1370     		strb	r3, [r2]
 800 000a 7047     		bx	lr
 801              	.L103:
 802              		.align	2
 803              	.L102:
 804 000c 02470040 		.word	1073760002
 805              		.cfi_endproc
 806              	.LFE12:
 807              		.size	CyEEPROM_ReadRelease, .-CyEEPROM_ReadRelease
 808              		.comm	dieTemperature,2,1
 809              		.bss
 810              		.align	2
 811              		.set	.LANCHOR0,. + 0
 812              		.type	rowBuffer, %object
 813              		.size	rowBuffer, 4
 814              	rowBuffer:
 815 0000 00000000 		.space	4
ARM GAS  C:\Users\labadmin\AppData\Local\Temp\ccgPQNOg.s 			page 28


 816              		.text
 817              	.Letext0:
 818              		.file 2 "Generated_Source\\PSoC5\\cytypes.h"
 819              		.file 3 "Generated_Source\\PSoC5\\CyLib.h"
 820              		.file 4 "Generated_Source\\PSoC5\\CySpc.h"