ARM GAS  C:\Users\labadmin\AppData\Local\Temp\ccGL8T0V.s 			page 1


   1              		.syntax unified
   2              		.cpu cortex-m3
   3              		.fpu softvfp
   4              		.eabi_attribute 20, 1
   5              		.eabi_attribute 21, 1
   6              		.eabi_attribute 23, 3
   7              		.eabi_attribute 24, 1
   8              		.eabi_attribute 25, 1
   9              		.eabi_attribute 26, 1
  10              		.eabi_attribute 30, 6
  11              		.eabi_attribute 34, 1
  12              		.eabi_attribute 18, 4
  13              		.thumb
  14              		.file	"main.c"
  15              		.text
  16              	.Ltext0:
  17              		.cfi_sections	.debug_frame
  18              		.global _printf_float
  19              		.thumb
  20              		.global	parity
  21              		.section	.rodata
  22              		.align	2
  23              	.LC0:
  24 0000 4E6F6E65 		.ascii	"None\000"
  24      00
  25 0005 000000   		.align	2
  26              	.LC1:
  27 0008 4F646400 		.ascii	"Odd\000"
  28              		.align	2
  29              	.LC2:
  30 000c 4576656E 		.ascii	"Even\000"
  30      00
  31 0011 000000   		.align	2
  32              	.LC3:
  33 0014 4D61726B 		.ascii	"Mark\000"
  33      00
  34 0019 000000   		.align	2
  35              	.LC4:
  36 001c 53706163 		.ascii	"Space\000"
  36      6500
  37              		.data
  38              		.align	2
  39              		.type	parity, %object
  40              		.size	parity, 20
  41              	parity:
  42 0000 00000000 		.word	.LC0
  43 0004 08000000 		.word	.LC1
  44 0008 0C000000 		.word	.LC2
  45 000c 14000000 		.word	.LC3
  46 0010 1C000000 		.word	.LC4
  47              		.global	stop
  48              		.section	.rodata
  49 0022 0000     		.align	2
  50              	.LC5:
  51 0024 3100     		.ascii	"1\000"
  52 0026 0000     		.align	2
  53              	.LC6:
ARM GAS  C:\Users\labadmin\AppData\Local\Temp\ccGL8T0V.s 			page 2


  54 0028 312E3500 		.ascii	"1.5\000"
  55              		.align	2
  56              	.LC7:
  57 002c 3200     		.ascii	"2\000"
  58              		.data
  59              		.align	2
  60              		.type	stop, %object
  61              		.size	stop, 12
  62              	stop:
  63 0014 24000000 		.word	.LC5
  64 0018 28000000 		.word	.LC6
  65 001c 2C000000 		.word	.LC7
  66              		.section	.rodata
  67 002e 0000     		.align	2
  68              	.LC8:
  69 0030 20202020 		.ascii	"    \000"
  69      00
  70              		.section	.text.Handle0,"ax",%progbits
  71              		.align	2
  72              		.global	Handle0
  73              		.thumb
  74              		.thumb_func
  75              		.type	Handle0, %function
  76              	Handle0:
  77              	.LFB63:
  78              		.file 1 "main.c"
   1:main.c        **** /*******************************************************************************
   2:main.c        **** * File Name: main.c
   3:main.c        **** *
   4:main.c        **** * Version: 2.0
   5:main.c        **** *
   6:main.c        **** * Description:
   7:main.c        **** *   The component is enumerated as a Virtual Com port. Receives data from the 
   8:main.c        **** *   hyper terminal, then sends back the received data.
   9:main.c        **** *   For PSoC3/PSoC5LP, the LCD shows the line settings.
  10:main.c        **** *
  11:main.c        **** * Related Document:
  12:main.c        **** *  Universal Serial Bus Specification Revision 2.0
  13:main.c        **** *  Universal Serial Bus Class Definitions for Communications Devices
  14:main.c        **** *  Revision 1.2
  15:main.c        **** *
  16:main.c        **** ********************************************************************************
  17:main.c        **** * Copyright 2015, Cypress Semiconductor Corporation. All rights reserved.
  18:main.c        **** * This software is owned by Cypress Semiconductor Corporation and is protected
  19:main.c        **** * by and subject to worldwide patent and copyright laws and treaties.
  20:main.c        **** * Therefore, you may use this software only as provided in the license agreement
  21:main.c        **** * accompanying the software package from which you obtained this software.
  22:main.c        **** * CYPRESS AND ITS SUPPLIERS MAKE NO WARRANTY OF ANY KIND, EXPRESS OR IMPLIED,
  23:main.c        **** * WITH REGARD TO THIS SOFTWARE, INCLUDING, BUT NOT LIMITED TO, NONINFRINGEMENT,
  24:main.c        **** * IMPLIED WARRANTIES OF MERCHANTABILITY AND FITNESS FOR A PARTICULAR PURPOSE.
  25:main.c        **** *******************************************************************************/
  26:main.c        **** 
  27:main.c        **** #include <project.h>
  28:main.c        **** #include "stdio.h"
  29:main.c        **** 
  30:main.c        **** #if defined (__GNUC__)
  31:main.c        ****     /* Add an explicit reference to the floating point printf library */
ARM GAS  C:\Users\labadmin\AppData\Local\Temp\ccGL8T0V.s 			page 3


  32:main.c        ****     /* to allow usage of the floating point conversion specifiers. */
  33:main.c        ****     /* This is not linked in by default with the newlib-nano library. */
  34:main.c        ****     asm (".global _printf_float");
  35:main.c        **** #endif
  36:main.c        **** 
  37:main.c        **** #define USBFS_DEVICE    (0u)
  38:main.c        **** 
  39:main.c        **** /* The buffer size is equal to the maximum packet size of the IN and OUT bulk
  40:main.c        **** * endpoints.
  41:main.c        **** */
  42:main.c        **** #define USBUART_BUFFER_SIZE (64u)
  43:main.c        **** #define LINE_STR_LENGTH     (20u)
  44:main.c        **** 
  45:main.c        **** char8* parity[] = {"None", "Odd", "Even", "Mark", "Space"};
  46:main.c        **** char8* stop[]   = {"1", "1.5", "2"};
  47:main.c        **** 
  48:main.c        **** 
  49:main.c        **** /*******************************************************************************
  50:main.c        **** * Function Name: main
  51:main.c        **** ********************************************************************************
  52:main.c        **** *
  53:main.c        **** * Summary:
  54:main.c        **** *  The main function performs the following actions:
  55:main.c        **** *   1. Waits until VBUS becomes valid and starts the USBFS component which is
  56:main.c        **** *      enumerated as virtual Com port.
  57:main.c        **** *   2. Waits until the device is enumerated by the host.
  58:main.c        **** *   3. Waits for data coming from the hyper terminal and sends it back.
  59:main.c        **** *   4. PSoC3/PSoC5LP: the LCD shows the line settings.
  60:main.c        **** *
  61:main.c        **** * Parameters:
  62:main.c        **** *  None.
  63:main.c        **** *
  64:main.c        **** * Return:
  65:main.c        **** *  None.
  66:main.c        **** *
  67:main.c        **** *******************************************************************************/
  68:main.c        **** //Do not know enough about C to make this more elegant
  69:main.c        **** //Each changes value of DAC
  70:main.c        **** //V = ((val+2)/255)*1.020
  71:main.c        **** int Handle0(int a, int b, int c){
  79              		.loc 1 71 0
  80              		.cfi_startproc
  81              		@ args = 0, pretend = 0, frame = 32
  82              		@ frame_needed = 1, uses_anonymous_args = 0
  83 0000 80B5     		push	{r7, lr}
  84              		.cfi_def_cfa_offset 8
  85              		.cfi_offset 7, -8
  86              		.cfi_offset 14, -4
  87 0002 88B0     		sub	sp, sp, #32
  88              		.cfi_def_cfa_offset 40
  89 0004 00AF     		add	r7, sp, #0
  90              		.cfi_def_cfa_register 7
  91 0006 F860     		str	r0, [r7, #12]
  92 0008 B960     		str	r1, [r7, #8]
  93 000a 7A60     		str	r2, [r7, #4]
  72:main.c        ****     
  73:main.c        ****     int v1 = a - 48;
ARM GAS  C:\Users\labadmin\AppData\Local\Temp\ccGL8T0V.s 			page 4


  94              		.loc 1 73 0
  95 000c FB68     		ldr	r3, [r7, #12]
  96 000e 303B     		subs	r3, r3, #48
  97 0010 FB61     		str	r3, [r7, #28]
  74:main.c        ****     int v2 = b - 48;
  98              		.loc 1 74 0
  99 0012 BB68     		ldr	r3, [r7, #8]
 100 0014 303B     		subs	r3, r3, #48
 101 0016 BB61     		str	r3, [r7, #24]
  75:main.c        ****     int v3 = c - 48;
 102              		.loc 1 75 0
 103 0018 7B68     		ldr	r3, [r7, #4]
 104 001a 303B     		subs	r3, r3, #48
 105 001c 7B61     		str	r3, [r7, #20]
  76:main.c        ****     uint8 val = v1 * 100 + v2 * 10 + v3;
 106              		.loc 1 76 0
 107 001e FB69     		ldr	r3, [r7, #28]
 108 0020 DBB2     		uxtb	r3, r3
 109 0022 1A46     		mov	r2, r3
 110 0024 9200     		lsls	r2, r2, #2
 111 0026 1344     		add	r3, r3, r2
 112 0028 1A46     		mov	r2, r3
 113 002a 9100     		lsls	r1, r2, #2
 114 002c 1A46     		mov	r2, r3
 115 002e 0B46     		mov	r3, r1
 116 0030 1344     		add	r3, r3, r2
 117 0032 9B00     		lsls	r3, r3, #2
 118 0034 DAB2     		uxtb	r2, r3
 119 0036 BB69     		ldr	r3, [r7, #24]
 120 0038 DBB2     		uxtb	r3, r3
 121 003a 1946     		mov	r1, r3
 122 003c 8900     		lsls	r1, r1, #2
 123 003e 0B44     		add	r3, r3, r1
 124 0040 5B00     		lsls	r3, r3, #1
 125 0042 DBB2     		uxtb	r3, r3
 126 0044 1344     		add	r3, r3, r2
 127 0046 DAB2     		uxtb	r2, r3
 128 0048 7B69     		ldr	r3, [r7, #20]
 129 004a DBB2     		uxtb	r3, r3
 130 004c 1344     		add	r3, r3, r2
 131 004e FB74     		strb	r3, [r7, #19]
  77:main.c        ****     VDAC8_1_SetValue(val);
 132              		.loc 1 77 0
 133 0050 FB7C     		ldrb	r3, [r7, #19]	@ zero_extendqisi2
 134 0052 1846     		mov	r0, r3
 135 0054 FFF7FEFF 		bl	VDAC8_1_SetValue
  78:main.c        ****     
  79:main.c        ****     /* Clear LCD line.*/ 
  80:main.c        ****     LCD_Position(1u, 0u);
 136              		.loc 1 80 0
 137 0058 0120     		movs	r0, #1
 138 005a 0021     		movs	r1, #0
 139 005c FFF7FEFF 		bl	LCD_Position
  81:main.c        ****     LCD_PrintString("    ");
 140              		.loc 1 81 0
 141 0060 1248     		ldr	r0, .L3
 142 0062 FFF7FEFF 		bl	LCD_PrintString
ARM GAS  C:\Users\labadmin\AppData\Local\Temp\ccGL8T0V.s 			page 5


  82:main.c        ****     
  83:main.c        ****     LCD_Position(1u, 0u);
 143              		.loc 1 83 0
 144 0066 0120     		movs	r0, #1
 145 0068 0021     		movs	r1, #0
 146 006a FFF7FEFF 		bl	LCD_Position
  84:main.c        ****     LCD_PrintNumber(val * 1000 / 255 * 102 / 100);
 147              		.loc 1 84 0
 148 006e FB7C     		ldrb	r3, [r7, #19]	@ zero_extendqisi2
 149 0070 4FF47A72 		mov	r2, #1000
 150 0074 02FB03F3 		mul	r3, r2, r3
 151 0078 0D4A     		ldr	r2, .L3+4
 152 007a 82FB0312 		smull	r1, r2, r2, r3
 153 007e 1A44     		add	r2, r2, r3
 154 0080 D211     		asrs	r2, r2, #7
 155 0082 DB17     		asrs	r3, r3, #31
 156 0084 D31A     		subs	r3, r2, r3
 157 0086 6622     		movs	r2, #102
 158 0088 02FB03F3 		mul	r3, r2, r3
 159 008c 094A     		ldr	r2, .L3+8
 160 008e 82FB0312 		smull	r1, r2, r2, r3
 161 0092 5211     		asrs	r2, r2, #5
 162 0094 DB17     		asrs	r3, r3, #31
 163 0096 D31A     		subs	r3, r2, r3
 164 0098 9BB2     		uxth	r3, r3
 165 009a 1846     		mov	r0, r3
 166 009c FFF7FEFF 		bl	LCD_PrintU32Number
  85:main.c        ****     return 0;
 167              		.loc 1 85 0
 168 00a0 0023     		movs	r3, #0
  86:main.c        **** }
 169              		.loc 1 86 0
 170 00a2 1846     		mov	r0, r3
 171 00a4 2037     		adds	r7, r7, #32
 172              		.cfi_def_cfa_offset 8
 173 00a6 BD46     		mov	sp, r7
 174              		.cfi_def_cfa_register 13
 175              		@ sp needed
 176 00a8 80BD     		pop	{r7, pc}
 177              	.L4:
 178 00aa 00BF     		.align	2
 179              	.L3:
 180 00ac 30000000 		.word	.LC8
 181 00b0 81808080 		.word	-2139062143
 182 00b4 1F85EB51 		.word	1374389535
 183              		.cfi_endproc
 184              	.LFE63:
 185              		.size	Handle0, .-Handle0
 186              		.section	.text.Handle1,"ax",%progbits
 187              		.align	2
 188              		.global	Handle1
 189              		.thumb
 190              		.thumb_func
 191              		.type	Handle1, %function
 192              	Handle1:
 193              	.LFB64:
  87:main.c        **** int Handle1(int a, int b, int c){
ARM GAS  C:\Users\labadmin\AppData\Local\Temp\ccGL8T0V.s 			page 6


 194              		.loc 1 87 0
 195              		.cfi_startproc
 196              		@ args = 0, pretend = 0, frame = 32
 197              		@ frame_needed = 1, uses_anonymous_args = 0
 198 0000 80B5     		push	{r7, lr}
 199              		.cfi_def_cfa_offset 8
 200              		.cfi_offset 7, -8
 201              		.cfi_offset 14, -4
 202 0002 88B0     		sub	sp, sp, #32
 203              		.cfi_def_cfa_offset 40
 204 0004 00AF     		add	r7, sp, #0
 205              		.cfi_def_cfa_register 7
 206 0006 F860     		str	r0, [r7, #12]
 207 0008 B960     		str	r1, [r7, #8]
 208 000a 7A60     		str	r2, [r7, #4]
  88:main.c        ****     int v1 = a - 48;
 209              		.loc 1 88 0
 210 000c FB68     		ldr	r3, [r7, #12]
 211 000e 303B     		subs	r3, r3, #48
 212 0010 FB61     		str	r3, [r7, #28]
  89:main.c        ****     int v2 = b - 48;
 213              		.loc 1 89 0
 214 0012 BB68     		ldr	r3, [r7, #8]
 215 0014 303B     		subs	r3, r3, #48
 216 0016 BB61     		str	r3, [r7, #24]
  90:main.c        ****     int v3 = c - 48;
 217              		.loc 1 90 0
 218 0018 7B68     		ldr	r3, [r7, #4]
 219 001a 303B     		subs	r3, r3, #48
 220 001c 7B61     		str	r3, [r7, #20]
  91:main.c        ****     uint8 val = v1 * 100 + v2 * 10 + v3;
 221              		.loc 1 91 0
 222 001e FB69     		ldr	r3, [r7, #28]
 223 0020 DBB2     		uxtb	r3, r3
 224 0022 1A46     		mov	r2, r3
 225 0024 9200     		lsls	r2, r2, #2
 226 0026 1344     		add	r3, r3, r2
 227 0028 1A46     		mov	r2, r3
 228 002a 9100     		lsls	r1, r2, #2
 229 002c 1A46     		mov	r2, r3
 230 002e 0B46     		mov	r3, r1
 231 0030 1344     		add	r3, r3, r2
 232 0032 9B00     		lsls	r3, r3, #2
 233 0034 DAB2     		uxtb	r2, r3
 234 0036 BB69     		ldr	r3, [r7, #24]
 235 0038 DBB2     		uxtb	r3, r3
 236 003a 1946     		mov	r1, r3
 237 003c 8900     		lsls	r1, r1, #2
 238 003e 0B44     		add	r3, r3, r1
 239 0040 5B00     		lsls	r3, r3, #1
 240 0042 DBB2     		uxtb	r3, r3
 241 0044 1344     		add	r3, r3, r2
 242 0046 DAB2     		uxtb	r2, r3
 243 0048 7B69     		ldr	r3, [r7, #20]
 244 004a DBB2     		uxtb	r3, r3
 245 004c 1344     		add	r3, r3, r2
 246 004e FB74     		strb	r3, [r7, #19]
ARM GAS  C:\Users\labadmin\AppData\Local\Temp\ccGL8T0V.s 			page 7


  92:main.c        ****     VDAC8_2_SetValue(val);
 247              		.loc 1 92 0
 248 0050 FB7C     		ldrb	r3, [r7, #19]	@ zero_extendqisi2
 249 0052 1846     		mov	r0, r3
 250 0054 FFF7FEFF 		bl	VDAC8_2_SetValue
  93:main.c        ****     
  94:main.c        ****     /* Clear LCD line.*/ 
  95:main.c        ****     LCD_Position(1u, 4u);
 251              		.loc 1 95 0
 252 0058 0120     		movs	r0, #1
 253 005a 0421     		movs	r1, #4
 254 005c FFF7FEFF 		bl	LCD_Position
  96:main.c        ****     LCD_PrintString("    ");
 255              		.loc 1 96 0
 256 0060 1248     		ldr	r0, .L7
 257 0062 FFF7FEFF 		bl	LCD_PrintString
  97:main.c        ****     
  98:main.c        ****     LCD_Position(1u, 4u);
 258              		.loc 1 98 0
 259 0066 0120     		movs	r0, #1
 260 0068 0421     		movs	r1, #4
 261 006a FFF7FEFF 		bl	LCD_Position
  99:main.c        ****     LCD_PrintNumber(val * 1000 / 255 * 102 / 100);
 262              		.loc 1 99 0
 263 006e FB7C     		ldrb	r3, [r7, #19]	@ zero_extendqisi2
 264 0070 4FF47A72 		mov	r2, #1000
 265 0074 02FB03F3 		mul	r3, r2, r3
 266 0078 0D4A     		ldr	r2, .L7+4
 267 007a 82FB0312 		smull	r1, r2, r2, r3
 268 007e 1A44     		add	r2, r2, r3
 269 0080 D211     		asrs	r2, r2, #7
 270 0082 DB17     		asrs	r3, r3, #31
 271 0084 D31A     		subs	r3, r2, r3
 272 0086 6622     		movs	r2, #102
 273 0088 02FB03F3 		mul	r3, r2, r3
 274 008c 094A     		ldr	r2, .L7+8
 275 008e 82FB0312 		smull	r1, r2, r2, r3
 276 0092 5211     		asrs	r2, r2, #5
 277 0094 DB17     		asrs	r3, r3, #31
 278 0096 D31A     		subs	r3, r2, r3
 279 0098 9BB2     		uxth	r3, r3
 280 009a 1846     		mov	r0, r3
 281 009c FFF7FEFF 		bl	LCD_PrintU32Number
 100:main.c        ****     return 0;
 282              		.loc 1 100 0
 283 00a0 0023     		movs	r3, #0
 101:main.c        **** }
 284              		.loc 1 101 0
 285 00a2 1846     		mov	r0, r3
 286 00a4 2037     		adds	r7, r7, #32
 287              		.cfi_def_cfa_offset 8
 288 00a6 BD46     		mov	sp, r7
 289              		.cfi_def_cfa_register 13
 290              		@ sp needed
 291 00a8 80BD     		pop	{r7, pc}
 292              	.L8:
 293 00aa 00BF     		.align	2
ARM GAS  C:\Users\labadmin\AppData\Local\Temp\ccGL8T0V.s 			page 8


 294              	.L7:
 295 00ac 30000000 		.word	.LC8
 296 00b0 81808080 		.word	-2139062143
 297 00b4 1F85EB51 		.word	1374389535
 298              		.cfi_endproc
 299              	.LFE64:
 300              		.size	Handle1, .-Handle1
 301              		.section	.text.Handle2,"ax",%progbits
 302              		.align	2
 303              		.global	Handle2
 304              		.thumb
 305              		.thumb_func
 306              		.type	Handle2, %function
 307              	Handle2:
 308              	.LFB65:
 102:main.c        **** int Handle2(int a, int b, int c){
 309              		.loc 1 102 0
 310              		.cfi_startproc
 311              		@ args = 0, pretend = 0, frame = 32
 312              		@ frame_needed = 1, uses_anonymous_args = 0
 313 0000 80B5     		push	{r7, lr}
 314              		.cfi_def_cfa_offset 8
 315              		.cfi_offset 7, -8
 316              		.cfi_offset 14, -4
 317 0002 88B0     		sub	sp, sp, #32
 318              		.cfi_def_cfa_offset 40
 319 0004 00AF     		add	r7, sp, #0
 320              		.cfi_def_cfa_register 7
 321 0006 F860     		str	r0, [r7, #12]
 322 0008 B960     		str	r1, [r7, #8]
 323 000a 7A60     		str	r2, [r7, #4]
 103:main.c        ****     int v1 = a - 48;
 324              		.loc 1 103 0
 325 000c FB68     		ldr	r3, [r7, #12]
 326 000e 303B     		subs	r3, r3, #48
 327 0010 FB61     		str	r3, [r7, #28]
 104:main.c        ****     int v2 = b - 48;
 328              		.loc 1 104 0
 329 0012 BB68     		ldr	r3, [r7, #8]
 330 0014 303B     		subs	r3, r3, #48
 331 0016 BB61     		str	r3, [r7, #24]
 105:main.c        ****     int v3 = c - 48;
 332              		.loc 1 105 0
 333 0018 7B68     		ldr	r3, [r7, #4]
 334 001a 303B     		subs	r3, r3, #48
 335 001c 7B61     		str	r3, [r7, #20]
 106:main.c        ****     uint8 val = v1 * 100 + v2 * 10 + v3;
 336              		.loc 1 106 0
 337 001e FB69     		ldr	r3, [r7, #28]
 338 0020 DBB2     		uxtb	r3, r3
 339 0022 1A46     		mov	r2, r3
 340 0024 9200     		lsls	r2, r2, #2
 341 0026 1344     		add	r3, r3, r2
 342 0028 1A46     		mov	r2, r3
 343 002a 9100     		lsls	r1, r2, #2
 344 002c 1A46     		mov	r2, r3
 345 002e 0B46     		mov	r3, r1
ARM GAS  C:\Users\labadmin\AppData\Local\Temp\ccGL8T0V.s 			page 9


 346 0030 1344     		add	r3, r3, r2
 347 0032 9B00     		lsls	r3, r3, #2
 348 0034 DAB2     		uxtb	r2, r3
 349 0036 BB69     		ldr	r3, [r7, #24]
 350 0038 DBB2     		uxtb	r3, r3
 351 003a 1946     		mov	r1, r3
 352 003c 8900     		lsls	r1, r1, #2
 353 003e 0B44     		add	r3, r3, r1
 354 0040 5B00     		lsls	r3, r3, #1
 355 0042 DBB2     		uxtb	r3, r3
 356 0044 1344     		add	r3, r3, r2
 357 0046 DAB2     		uxtb	r2, r3
 358 0048 7B69     		ldr	r3, [r7, #20]
 359 004a DBB2     		uxtb	r3, r3
 360 004c 1344     		add	r3, r3, r2
 361 004e FB74     		strb	r3, [r7, #19]
 107:main.c        ****     VDAC8_3_SetValue(val);
 362              		.loc 1 107 0
 363 0050 FB7C     		ldrb	r3, [r7, #19]	@ zero_extendqisi2
 364 0052 1846     		mov	r0, r3
 365 0054 FFF7FEFF 		bl	VDAC8_3_SetValue
 108:main.c        ****     
 109:main.c        ****     /* Clear LCD line.*/ 
 110:main.c        ****     LCD_Position(1u, 8u);
 366              		.loc 1 110 0
 367 0058 0120     		movs	r0, #1
 368 005a 0821     		movs	r1, #8
 369 005c FFF7FEFF 		bl	LCD_Position
 111:main.c        ****     LCD_PrintString("    ");
 370              		.loc 1 111 0
 371 0060 1248     		ldr	r0, .L11
 372 0062 FFF7FEFF 		bl	LCD_PrintString
 112:main.c        ****     
 113:main.c        ****     LCD_Position(1u, 8u);
 373              		.loc 1 113 0
 374 0066 0120     		movs	r0, #1
 375 0068 0821     		movs	r1, #8
 376 006a FFF7FEFF 		bl	LCD_Position
 114:main.c        ****     LCD_PrintNumber(val * 1000 / 255 * 102 / 100);
 377              		.loc 1 114 0
 378 006e FB7C     		ldrb	r3, [r7, #19]	@ zero_extendqisi2
 379 0070 4FF47A72 		mov	r2, #1000
 380 0074 02FB03F3 		mul	r3, r2, r3
 381 0078 0D4A     		ldr	r2, .L11+4
 382 007a 82FB0312 		smull	r1, r2, r2, r3
 383 007e 1A44     		add	r2, r2, r3
 384 0080 D211     		asrs	r2, r2, #7
 385 0082 DB17     		asrs	r3, r3, #31
 386 0084 D31A     		subs	r3, r2, r3
 387 0086 6622     		movs	r2, #102
 388 0088 02FB03F3 		mul	r3, r2, r3
 389 008c 094A     		ldr	r2, .L11+8
 390 008e 82FB0312 		smull	r1, r2, r2, r3
 391 0092 5211     		asrs	r2, r2, #5
 392 0094 DB17     		asrs	r3, r3, #31
 393 0096 D31A     		subs	r3, r2, r3
 394 0098 9BB2     		uxth	r3, r3
ARM GAS  C:\Users\labadmin\AppData\Local\Temp\ccGL8T0V.s 			page 10


 395 009a 1846     		mov	r0, r3
 396 009c FFF7FEFF 		bl	LCD_PrintU32Number
 115:main.c        ****     return 0;
 397              		.loc 1 115 0
 398 00a0 0023     		movs	r3, #0
 116:main.c        **** }
 399              		.loc 1 116 0
 400 00a2 1846     		mov	r0, r3
 401 00a4 2037     		adds	r7, r7, #32
 402              		.cfi_def_cfa_offset 8
 403 00a6 BD46     		mov	sp, r7
 404              		.cfi_def_cfa_register 13
 405              		@ sp needed
 406 00a8 80BD     		pop	{r7, pc}
 407              	.L12:
 408 00aa 00BF     		.align	2
 409              	.L11:
 410 00ac 30000000 		.word	.LC8
 411 00b0 81808080 		.word	-2139062143
 412 00b4 1F85EB51 		.word	1374389535
 413              		.cfi_endproc
 414              	.LFE65:
 415              		.size	Handle2, .-Handle2
 416              		.section	.text.Handle3,"ax",%progbits
 417              		.align	2
 418              		.global	Handle3
 419              		.thumb
 420              		.thumb_func
 421              		.type	Handle3, %function
 422              	Handle3:
 423              	.LFB66:
 117:main.c        **** int Handle3(int a, int b, int c){
 424              		.loc 1 117 0
 425              		.cfi_startproc
 426              		@ args = 0, pretend = 0, frame = 32
 427              		@ frame_needed = 1, uses_anonymous_args = 0
 428 0000 80B5     		push	{r7, lr}
 429              		.cfi_def_cfa_offset 8
 430              		.cfi_offset 7, -8
 431              		.cfi_offset 14, -4
 432 0002 88B0     		sub	sp, sp, #32
 433              		.cfi_def_cfa_offset 40
 434 0004 00AF     		add	r7, sp, #0
 435              		.cfi_def_cfa_register 7
 436 0006 F860     		str	r0, [r7, #12]
 437 0008 B960     		str	r1, [r7, #8]
 438 000a 7A60     		str	r2, [r7, #4]
 118:main.c        ****     int v1 = a - 48;
 439              		.loc 1 118 0
 440 000c FB68     		ldr	r3, [r7, #12]
 441 000e 303B     		subs	r3, r3, #48
 442 0010 FB61     		str	r3, [r7, #28]
 119:main.c        ****     int v2 = b - 48;
 443              		.loc 1 119 0
 444 0012 BB68     		ldr	r3, [r7, #8]
 445 0014 303B     		subs	r3, r3, #48
 446 0016 BB61     		str	r3, [r7, #24]
ARM GAS  C:\Users\labadmin\AppData\Local\Temp\ccGL8T0V.s 			page 11


 120:main.c        ****     int v3 = c - 48;
 447              		.loc 1 120 0
 448 0018 7B68     		ldr	r3, [r7, #4]
 449 001a 303B     		subs	r3, r3, #48
 450 001c 7B61     		str	r3, [r7, #20]
 121:main.c        ****     uint8 val = v1 * 100 + v2 * 10 + v3;
 451              		.loc 1 121 0
 452 001e FB69     		ldr	r3, [r7, #28]
 453 0020 DBB2     		uxtb	r3, r3
 454 0022 1A46     		mov	r2, r3
 455 0024 9200     		lsls	r2, r2, #2
 456 0026 1344     		add	r3, r3, r2
 457 0028 1A46     		mov	r2, r3
 458 002a 9100     		lsls	r1, r2, #2
 459 002c 1A46     		mov	r2, r3
 460 002e 0B46     		mov	r3, r1
 461 0030 1344     		add	r3, r3, r2
 462 0032 9B00     		lsls	r3, r3, #2
 463 0034 DAB2     		uxtb	r2, r3
 464 0036 BB69     		ldr	r3, [r7, #24]
 465 0038 DBB2     		uxtb	r3, r3
 466 003a 1946     		mov	r1, r3
 467 003c 8900     		lsls	r1, r1, #2
 468 003e 0B44     		add	r3, r3, r1
 469 0040 5B00     		lsls	r3, r3, #1
 470 0042 DBB2     		uxtb	r3, r3
 471 0044 1344     		add	r3, r3, r2
 472 0046 DAB2     		uxtb	r2, r3
 473 0048 7B69     		ldr	r3, [r7, #20]
 474 004a DBB2     		uxtb	r3, r3
 475 004c 1344     		add	r3, r3, r2
 476 004e FB74     		strb	r3, [r7, #19]
 122:main.c        ****     
 123:main.c        ****     /* Clear LCD line.*/ 
 124:main.c        ****     LCD_Position(1u, 12u);
 477              		.loc 1 124 0
 478 0050 0120     		movs	r0, #1
 479 0052 0C21     		movs	r1, #12
 480 0054 FFF7FEFF 		bl	LCD_Position
 125:main.c        ****     LCD_PrintString("    ");
 481              		.loc 1 125 0
 482 0058 1448     		ldr	r0, .L15
 483 005a FFF7FEFF 		bl	LCD_PrintString
 126:main.c        ****     
 127:main.c        ****     VDAC8_4_SetValue(val);
 484              		.loc 1 127 0
 485 005e FB7C     		ldrb	r3, [r7, #19]	@ zero_extendqisi2
 486 0060 1846     		mov	r0, r3
 487 0062 FFF7FEFF 		bl	VDAC8_4_SetValue
 128:main.c        ****     LCD_Position(1u, 12u);
 488              		.loc 1 128 0
 489 0066 0120     		movs	r0, #1
 490 0068 0C21     		movs	r1, #12
 491 006a FFF7FEFF 		bl	LCD_Position
 129:main.c        ****     LCD_PrintNumber(val * 1000 / 255 * 102 / 100);
 492              		.loc 1 129 0
 493 006e FB7C     		ldrb	r3, [r7, #19]	@ zero_extendqisi2
ARM GAS  C:\Users\labadmin\AppData\Local\Temp\ccGL8T0V.s 			page 12


 494 0070 4FF47A72 		mov	r2, #1000
 495 0074 02FB03F3 		mul	r3, r2, r3
 496 0078 0D4A     		ldr	r2, .L15+4
 497 007a 82FB0312 		smull	r1, r2, r2, r3
 498 007e 1A44     		add	r2, r2, r3
 499 0080 D211     		asrs	r2, r2, #7
 500 0082 DB17     		asrs	r3, r3, #31
 501 0084 D31A     		subs	r3, r2, r3
 502 0086 6622     		movs	r2, #102
 503 0088 02FB03F3 		mul	r3, r2, r3
 504 008c 094A     		ldr	r2, .L15+8
 505 008e 82FB0312 		smull	r1, r2, r2, r3
 506 0092 5211     		asrs	r2, r2, #5
 507 0094 DB17     		asrs	r3, r3, #31
 508 0096 D31A     		subs	r3, r2, r3
 509 0098 9BB2     		uxth	r3, r3
 510 009a 1846     		mov	r0, r3
 511 009c FFF7FEFF 		bl	LCD_PrintU32Number
 130:main.c        ****     return 0;
 512              		.loc 1 130 0
 513 00a0 0023     		movs	r3, #0
 131:main.c        **** }
 514              		.loc 1 131 0
 515 00a2 1846     		mov	r0, r3
 516 00a4 2037     		adds	r7, r7, #32
 517              		.cfi_def_cfa_offset 8
 518 00a6 BD46     		mov	sp, r7
 519              		.cfi_def_cfa_register 13
 520              		@ sp needed
 521 00a8 80BD     		pop	{r7, pc}
 522              	.L16:
 523 00aa 00BF     		.align	2
 524              	.L15:
 525 00ac 30000000 		.word	.LC8
 526 00b0 81808080 		.word	-2139062143
 527 00b4 1F85EB51 		.word	1374389535
 528              		.cfi_endproc
 529              	.LFE66:
 530              		.size	Handle3, .-Handle3
 531              		.section	.text.ProcessMessage,"ax",%progbits
 532              		.align	2
 533              		.global	ProcessMessage
 534              		.thumb
 535              		.thumb_func
 536              		.type	ProcessMessage, %function
 537              	ProcessMessage:
 538              	.LFB67:
 132:main.c        **** 
 133:main.c        **** //Ex: 2550 is abcd and means 255 to DAC (d+1)
 134:main.c        **** int ProcessMessage(int a, int b, int c, int d){
 539              		.loc 1 134 0
 540              		.cfi_startproc
 541              		@ args = 0, pretend = 0, frame = 24
 542              		@ frame_needed = 1, uses_anonymous_args = 0
 543 0000 80B5     		push	{r7, lr}
 544              		.cfi_def_cfa_offset 8
 545              		.cfi_offset 7, -8
ARM GAS  C:\Users\labadmin\AppData\Local\Temp\ccGL8T0V.s 			page 13


 546              		.cfi_offset 14, -4
 547 0002 86B0     		sub	sp, sp, #24
 548              		.cfi_def_cfa_offset 32
 549 0004 00AF     		add	r7, sp, #0
 550              		.cfi_def_cfa_register 7
 551 0006 F860     		str	r0, [r7, #12]
 552 0008 B960     		str	r1, [r7, #8]
 553 000a 7A60     		str	r2, [r7, #4]
 554 000c 3B60     		str	r3, [r7]
 135:main.c        ****     //Using ASCII values
 136:main.c        ****     int v = d - 48;
 555              		.loc 1 136 0
 556 000e 3B68     		ldr	r3, [r7]
 557 0010 303B     		subs	r3, r3, #48
 558 0012 7B61     		str	r3, [r7, #20]
 137:main.c        ****     if(v == 0)
 559              		.loc 1 137 0
 560 0014 7B69     		ldr	r3, [r7, #20]
 561 0016 002B     		cmp	r3, #0
 562 0018 04D1     		bne	.L18
 138:main.c        ****         Handle0(a,b,c);
 563              		.loc 1 138 0
 564 001a F868     		ldr	r0, [r7, #12]
 565 001c B968     		ldr	r1, [r7, #8]
 566 001e 7A68     		ldr	r2, [r7, #4]
 567 0020 FFF7FEFF 		bl	Handle0
 568              	.L18:
 139:main.c        ****     if(v == 1)
 569              		.loc 1 139 0
 570 0024 7B69     		ldr	r3, [r7, #20]
 571 0026 012B     		cmp	r3, #1
 572 0028 04D1     		bne	.L19
 140:main.c        ****         Handle1(a,b,c);
 573              		.loc 1 140 0
 574 002a F868     		ldr	r0, [r7, #12]
 575 002c B968     		ldr	r1, [r7, #8]
 576 002e 7A68     		ldr	r2, [r7, #4]
 577 0030 FFF7FEFF 		bl	Handle1
 578              	.L19:
 141:main.c        ****     if(v == 2)
 579              		.loc 1 141 0
 580 0034 7B69     		ldr	r3, [r7, #20]
 581 0036 022B     		cmp	r3, #2
 582 0038 04D1     		bne	.L20
 142:main.c        ****         Handle2(a,b,c);
 583              		.loc 1 142 0
 584 003a F868     		ldr	r0, [r7, #12]
 585 003c B968     		ldr	r1, [r7, #8]
 586 003e 7A68     		ldr	r2, [r7, #4]
 587 0040 FFF7FEFF 		bl	Handle2
 588              	.L20:
 143:main.c        ****     if(v == 3)
 589              		.loc 1 143 0
 590 0044 7B69     		ldr	r3, [r7, #20]
 591 0046 032B     		cmp	r3, #3
 592 0048 04D1     		bne	.L21
 144:main.c        ****         Handle3(a, b, c);
ARM GAS  C:\Users\labadmin\AppData\Local\Temp\ccGL8T0V.s 			page 14


 593              		.loc 1 144 0
 594 004a F868     		ldr	r0, [r7, #12]
 595 004c B968     		ldr	r1, [r7, #8]
 596 004e 7A68     		ldr	r2, [r7, #4]
 597 0050 FFF7FEFF 		bl	Handle3
 598              	.L21:
 145:main.c        ****     return 0;
 599              		.loc 1 145 0
 600 0054 0023     		movs	r3, #0
 146:main.c        **** }
 601              		.loc 1 146 0
 602 0056 1846     		mov	r0, r3
 603 0058 1837     		adds	r7, r7, #24
 604              		.cfi_def_cfa_offset 8
 605 005a BD46     		mov	sp, r7
 606              		.cfi_def_cfa_register 13
 607              		@ sp needed
 608 005c 80BD     		pop	{r7, pc}
 609              		.cfi_endproc
 610              	.LFE67:
 611              		.size	ProcessMessage, .-ProcessMessage
 612 005e 00BF     		.section	.rodata
 613 0035 000000   		.align	2
 614              	.LC9:
 615 0038 42523A25 		.ascii	"BR:%4ld %d%c%s\000"
 615      346C6420 
 615      25642563 
 615      257300
 616 0047 00       		.align	2
 617              	.LC10:
 618 0048 20202020 		.ascii	"                    \000"
 618      20202020 
 618      20202020 
 618      20202020 
 618      20202020 
 619 005d 000000   		.align	2
 620              	.LC11:
 621 0060 4F4E00   		.ascii	"ON\000"
 622 0063 00       		.align	2
 623              	.LC12:
 624 0064 4F464600 		.ascii	"OFF\000"
 625              		.align	2
 626              	.LC13:
 627 0068 4454523A 		.ascii	"DTR:%s,RTS:%s\000"
 627      25732C52 
 627      54533A25 
 627      7300
 628 0076 0000     		.section	.text.main,"ax",%progbits
 629              		.align	2
 630              		.global	main
 631              		.thumb
 632              		.thumb_func
 633              		.type	main, %function
 634              	main:
 635              	.LFB68:
 147:main.c        **** 
 148:main.c        **** 
ARM GAS  C:\Users\labadmin\AppData\Local\Temp\ccGL8T0V.s 			page 15


 149:main.c        **** 
 150:main.c        **** int main()
 151:main.c        **** {
 636              		.loc 1 151 0
 637              		.cfi_startproc
 638              		@ args = 0, pretend = 0, frame = 88
 639              		@ frame_needed = 1, uses_anonymous_args = 0
 640 0000 F0B5     		push	{r4, r5, r6, r7, lr}
 641              		.cfi_def_cfa_offset 20
 642              		.cfi_offset 4, -20
 643              		.cfi_offset 5, -16
 644              		.cfi_offset 6, -12
 645              		.cfi_offset 7, -8
 646              		.cfi_offset 14, -4
 647 0002 99B0     		sub	sp, sp, #100
 648              		.cfi_def_cfa_offset 120
 649 0004 02AF     		add	r7, sp, #8
 650              		.cfi_def_cfa 7, 112
 152:main.c        ****     uint16 count;
 153:main.c        ****     uint8 buffer[USBUART_BUFFER_SIZE];
 154:main.c        ****     
 155:main.c        **** #if (CY_PSOC3 || CY_PSOC5LP)
 156:main.c        ****     uint8 state;
 157:main.c        ****     char8 lineStr[LINE_STR_LENGTH];
 158:main.c        ****     
 159:main.c        ****     LCD_Start();
 651              		.loc 1 159 0
 652 0006 FFF7FEFF 		bl	LCD_Start
 160:main.c        **** #endif /* (CY_PSOC3 || CY_PSOC5LP) */
 161:main.c        ****     
 162:main.c        ****     /* Start VDAC */
 163:main.c        ****     VDAC8_1_Start();
 653              		.loc 1 163 0
 654 000a FFF7FEFF 		bl	VDAC8_1_Start
 164:main.c        ****     VDAC8_2_Start();
 655              		.loc 1 164 0
 656 000e FFF7FEFF 		bl	VDAC8_2_Start
 165:main.c        ****     VDAC8_3_Start();
 657              		.loc 1 165 0
 658 0012 FFF7FEFF 		bl	VDAC8_3_Start
 166:main.c        ****     VDAC8_4_Start();
 659              		.loc 1 166 0
 660 0016 FFF7FEFF 		bl	VDAC8_4_Start
 167:main.c        ****     /* Set the value 200 in VDAC data register */
 168:main.c        ****     VDAC8_1_SetValue(0u);
 661              		.loc 1 168 0
 662 001a 0020     		movs	r0, #0
 663 001c FFF7FEFF 		bl	VDAC8_1_SetValue
 169:main.c        ****     VDAC8_2_SetValue(0u);
 664              		.loc 1 169 0
 665 0020 0020     		movs	r0, #0
 666 0022 FFF7FEFF 		bl	VDAC8_2_SetValue
 170:main.c        ****     VDAC8_3_SetValue(0u);
 667              		.loc 1 170 0
 668 0026 0020     		movs	r0, #0
 669 0028 FFF7FEFF 		bl	VDAC8_3_SetValue
 171:main.c        ****     VDAC8_4_SetValue(0u);
ARM GAS  C:\Users\labadmin\AppData\Local\Temp\ccGL8T0V.s 			page 16


 670              		.loc 1 171 0
 671 002c 0020     		movs	r0, #0
 672 002e FFF7FEFF 		bl	VDAC8_4_SetValue
 172:main.c        ****     /* Initialize LCD values*/
 173:main.c        ****     LCD_Position(1u, 0u);
 673              		.loc 1 173 0
 674 0032 0120     		movs	r0, #1
 675 0034 0021     		movs	r1, #0
 676 0036 FFF7FEFF 		bl	LCD_Position
 174:main.c        ****     LCD_PrintNumber(0);
 677              		.loc 1 174 0
 678 003a 0020     		movs	r0, #0
 679 003c FFF7FEFF 		bl	LCD_PrintU32Number
 175:main.c        ****     LCD_Position(1u, 4u);
 680              		.loc 1 175 0
 681 0040 0120     		movs	r0, #1
 682 0042 0421     		movs	r1, #4
 683 0044 FFF7FEFF 		bl	LCD_Position
 176:main.c        ****     LCD_PrintNumber(0);
 684              		.loc 1 176 0
 685 0048 0020     		movs	r0, #0
 686 004a FFF7FEFF 		bl	LCD_PrintU32Number
 177:main.c        ****     LCD_Position(1u, 8u);
 687              		.loc 1 177 0
 688 004e 0120     		movs	r0, #1
 689 0050 0821     		movs	r1, #8
 690 0052 FFF7FEFF 		bl	LCD_Position
 178:main.c        ****     LCD_PrintNumber(0);
 691              		.loc 1 178 0
 692 0056 0020     		movs	r0, #0
 693 0058 FFF7FEFF 		bl	LCD_PrintU32Number
 179:main.c        ****     LCD_Position(1u, 12u);
 694              		.loc 1 179 0
 695 005c 0120     		movs	r0, #1
 696 005e 0C21     		movs	r1, #12
 697 0060 FFF7FEFF 		bl	LCD_Position
 180:main.c        ****     LCD_PrintNumber(0);
 698              		.loc 1 180 0
 699 0064 0020     		movs	r0, #0
 700 0066 FFF7FEFF 		bl	LCD_PrintU32Number
 181:main.c        ****     CyGlobalIntEnable;
 701              		.loc 1 181 0
 702              	@ 181 "main.c" 1
 703 006a 62B6     		CPSIE   i
 704              	@ 0 "" 2
 182:main.c        **** 
 183:main.c        ****     /* Start USBFS operation with 5-V operation. */
 184:main.c        ****     USBUART_Start(USBFS_DEVICE, USBUART_5V_OPERATION);
 705              		.loc 1 184 0
 706              		.thumb
 707 006c 0020     		movs	r0, #0
 708 006e 0121     		movs	r1, #1
 709 0070 FFF7FEFF 		bl	USBUART_Start
 710              	.L34:
 185:main.c        ****     
 186:main.c        ****     for(;;)
 187:main.c        ****     {
ARM GAS  C:\Users\labadmin\AppData\Local\Temp\ccGL8T0V.s 			page 17


 188:main.c        ****         /* Host can send double SET_INTERFACE request. */
 189:main.c        ****         if (0u != USBUART_IsConfigurationChanged())
 711              		.loc 1 189 0
 712 0074 FFF7FEFF 		bl	USBUART_IsConfigurationChanged
 713 0078 0346     		mov	r3, r0
 714 007a 002B     		cmp	r3, #0
 715 007c 06D0     		beq	.L24
 190:main.c        ****         {
 191:main.c        ****             /* Initialize IN endpoints when device is configured. */
 192:main.c        ****             if (0u != USBUART_GetConfiguration())
 716              		.loc 1 192 0
 717 007e FFF7FEFF 		bl	USBUART_GetConfiguration
 718 0082 0346     		mov	r3, r0
 719 0084 002B     		cmp	r3, #0
 720 0086 01D0     		beq	.L24
 193:main.c        ****             {
 194:main.c        ****                 /* Enumeration is done, enable OUT endpoint to receive data 
 195:main.c        ****                  * from host. */
 196:main.c        ****                 USBUART_CDC_Init();
 721              		.loc 1 196 0
 722 0088 FFF7FEFF 		bl	USBUART_CDC_Init
 723              	.L24:
 197:main.c        ****             }
 198:main.c        ****         }
 199:main.c        **** 
 200:main.c        ****         /* Service USB CDC when device is configured. */
 201:main.c        ****         if (0u != USBUART_GetConfiguration())
 724              		.loc 1 201 0
 725 008c FFF7FEFF 		bl	USBUART_GetConfiguration
 726 0090 0346     		mov	r3, r0
 727 0092 002B     		cmp	r3, #0
 728 0094 00F09680 		beq	.L25
 202:main.c        ****         {
 203:main.c        ****             /* Check for input data from host. */
 204:main.c        ****             if (0u != USBUART_DataIsReady())
 729              		.loc 1 204 0
 730 0098 FFF7FEFF 		bl	USBUART_DataIsReady
 731 009c 0346     		mov	r3, r0
 732 009e 002B     		cmp	r3, #0
 733 00a0 30D0     		beq	.L26
 205:main.c        ****             {
 206:main.c        ****                 /* Read received data and re-enable OUT endpoint. */
 207:main.c        ****                 count = USBUART_GetAll(buffer);
 734              		.loc 1 207 0
 735 00a2 07F11403 		add	r3, r7, #20
 736 00a6 1846     		mov	r0, r3
 737 00a8 FFF7FEFF 		bl	USBUART_GetAll
 738 00ac 0346     		mov	r3, r0
 739 00ae A7F85430 		strh	r3, [r7, #84]	@ movhi
 208:main.c        **** 
 209:main.c        ****                 if (0u != count)
 740              		.loc 1 209 0
 741 00b2 B7F85430 		ldrh	r3, [r7, #84]
 742 00b6 002B     		cmp	r3, #0
 743 00b8 24D0     		beq	.L26
 210:main.c        ****                 {
 211:main.c        ****                     /* Wait until component is ready to send data to host. */
ARM GAS  C:\Users\labadmin\AppData\Local\Temp\ccGL8T0V.s 			page 18


 212:main.c        ****                     while (0u == USBUART_CDCIsReady())
 744              		.loc 1 212 0
 745 00ba 00BF     		nop
 746              	.L27:
 747              		.loc 1 212 0 is_stmt 0 discriminator 1
 748 00bc FFF7FEFF 		bl	USBUART_CDCIsReady
 749 00c0 0346     		mov	r3, r0
 750 00c2 002B     		cmp	r3, #0
 751 00c4 FAD0     		beq	.L27
 213:main.c        ****                     {
 214:main.c        ****                     }
 215:main.c        **** 
 216:main.c        ****                     /* Send data back to host. */
 217:main.c        ****                     USBUART_PutData(buffer, count);
 752              		.loc 1 217 0 is_stmt 1
 753 00c6 07F11402 		add	r2, r7, #20
 754 00ca B7F85430 		ldrh	r3, [r7, #84]
 755 00ce 1046     		mov	r0, r2
 756 00d0 1946     		mov	r1, r3
 757 00d2 FFF7FEFF 		bl	USBUART_PutData
 218:main.c        ****                     
 219:main.c        ****                     //(val+2/255)*1.020 = V 
 220:main.c        **** 
 221:main.c        ****                     ProcessMessage(buffer[0], buffer[1], buffer[2], buffer[3]);
 758              		.loc 1 221 0
 759 00d6 3B7D     		ldrb	r3, [r7, #20]	@ zero_extendqisi2
 760 00d8 1846     		mov	r0, r3
 761 00da 7B7D     		ldrb	r3, [r7, #21]	@ zero_extendqisi2
 762 00dc 1946     		mov	r1, r3
 763 00de BB7D     		ldrb	r3, [r7, #22]	@ zero_extendqisi2
 764 00e0 1A46     		mov	r2, r3
 765 00e2 FB7D     		ldrb	r3, [r7, #23]	@ zero_extendqisi2
 766 00e4 FFF7FEFF 		bl	ProcessMessage
 222:main.c        ****                     /* If the last sent packet is exactly the maximum packet 
 223:main.c        ****                     *  size, it is followed by a zero-length packet to assure
 224:main.c        ****                     *  that the end of the segment is properly identified by 
 225:main.c        ****                     *  the terminal.
 226:main.c        ****                     */
 227:main.c        ****                     if (USBUART_BUFFER_SIZE == count)
 767              		.loc 1 227 0
 768 00e8 B7F85430 		ldrh	r3, [r7, #84]
 769 00ec 402B     		cmp	r3, #64
 770 00ee 09D1     		bne	.L26
 228:main.c        ****                     {
 229:main.c        ****                         /* Wait until component is ready to send data to PC. */
 230:main.c        ****                         while (0u == USBUART_CDCIsReady())
 771              		.loc 1 230 0
 772 00f0 00BF     		nop
 773              	.L28:
 774              		.loc 1 230 0 is_stmt 0 discriminator 1
 775 00f2 FFF7FEFF 		bl	USBUART_CDCIsReady
 776 00f6 0346     		mov	r3, r0
 777 00f8 002B     		cmp	r3, #0
 778 00fa FAD0     		beq	.L28
 231:main.c        ****                         {
 232:main.c        ****                         }
 233:main.c        **** 
ARM GAS  C:\Users\labadmin\AppData\Local\Temp\ccGL8T0V.s 			page 19


 234:main.c        ****                         /* Send zero-length packet to PC. */
 235:main.c        ****                         USBUART_PutData(NULL, 0u);
 779              		.loc 1 235 0 is_stmt 1
 780 00fc 0020     		movs	r0, #0
 781 00fe 0021     		movs	r1, #0
 782 0100 FFF7FEFF 		bl	USBUART_PutData
 783              	.L26:
 236:main.c        ****                     }
 237:main.c        ****                 }
 238:main.c        ****             }
 239:main.c        **** 
 240:main.c        **** 
 241:main.c        ****         #if (CY_PSOC3 || CY_PSOC5LP)
 242:main.c        ****             /* Check for Line settings change. */
 243:main.c        ****             state = USBUART_IsLineChanged();
 784              		.loc 1 243 0
 785 0104 FFF7FEFF 		bl	USBUART_IsLineChanged
 786 0108 0346     		mov	r3, r0
 787 010a 87F85730 		strb	r3, [r7, #87]
 244:main.c        ****             if (0u != state)
 788              		.loc 1 244 0
 789 010e 97F85730 		ldrb	r3, [r7, #87]	@ zero_extendqisi2
 790 0112 002B     		cmp	r3, #0
 791 0114 56D0     		beq	.L25
 245:main.c        ****             {
 246:main.c        ****                 /* Output on LCD Line Coding settings. */
 247:main.c        ****                 if (0u != (state & USBUART_LINE_CODING_CHANGED))
 792              		.loc 1 247 0
 793 0116 97F85730 		ldrb	r3, [r7, #87]	@ zero_extendqisi2
 794 011a 03F00103 		and	r3, r3, #1
 795 011e 002B     		cmp	r3, #0
 796 0120 2ED0     		beq	.L29
 248:main.c        ****                 {                  
 249:main.c        ****                     /* Get string to output. */
 250:main.c        ****                     sprintf(lineStr,"BR:%4ld %d%c%s", USBUART_GetDTERate(),\
 797              		.loc 1 250 0
 798 0122 FFF7FEFF 		bl	USBUART_GetDTERate
 799 0126 0646     		mov	r6, r0
 251:main.c        ****                                    (uint16) USBUART_GetDataBits(),\
 800              		.loc 1 251 0
 801 0128 FFF7FEFF 		bl	USBUART_GetDataBits
 802 012c 0346     		mov	r3, r0
 250:main.c        ****                                    (uint16) USBUART_GetDataBits(),\
 803              		.loc 1 250 0
 804 012e 1D46     		mov	r5, r3
 252:main.c        ****                                    parity[(uint16) USBUART_GetParityType()][0],\
 805              		.loc 1 252 0
 806 0130 FFF7FEFF 		bl	USBUART_GetParityType
 807 0134 0346     		mov	r3, r0
 808 0136 1A46     		mov	r2, r3
 809 0138 234B     		ldr	r3, .L35
 810 013a 53F82230 		ldr	r3, [r3, r2, lsl #2]
 811 013e 1B78     		ldrb	r3, [r3]	@ zero_extendqisi2
 250:main.c        ****                                    (uint16) USBUART_GetDataBits(),\
 812              		.loc 1 250 0
 813 0140 1C46     		mov	r4, r3
 253:main.c        ****                                    stop[(uint16) USBUART_GetCharFormat()]);
ARM GAS  C:\Users\labadmin\AppData\Local\Temp\ccGL8T0V.s 			page 20


 814              		.loc 1 253 0
 815 0142 FFF7FEFF 		bl	USBUART_GetCharFormat
 816 0146 0346     		mov	r3, r0
 250:main.c        ****                                    (uint16) USBUART_GetDataBits(),\
 817              		.loc 1 250 0
 818 0148 1A46     		mov	r2, r3
 819 014a 204B     		ldr	r3, .L35+4
 820 014c 53F82230 		ldr	r3, [r3, r2, lsl #2]
 821 0150 3A46     		mov	r2, r7
 822 0152 0094     		str	r4, [sp]
 823 0154 0193     		str	r3, [sp, #4]
 824 0156 1046     		mov	r0, r2
 825 0158 1D49     		ldr	r1, .L35+8
 826 015a 3246     		mov	r2, r6
 827 015c 2B46     		mov	r3, r5
 828 015e FFF7FEFF 		bl	sprintf
 254:main.c        **** 
 255:main.c        ****                     /* Clear LCD line. */
 256:main.c        ****                     LCD_Position(0u, 0u);
 829              		.loc 1 256 0
 830 0162 0020     		movs	r0, #0
 831 0164 0021     		movs	r1, #0
 832 0166 FFF7FEFF 		bl	LCD_Position
 257:main.c        ****                     LCD_PrintString("                    ");
 833              		.loc 1 257 0
 834 016a 1A48     		ldr	r0, .L35+12
 835 016c FFF7FEFF 		bl	LCD_PrintString
 258:main.c        **** 
 259:main.c        ****                     /* Output string on LCD. */
 260:main.c        ****                     LCD_Position(0u, 0u);
 836              		.loc 1 260 0
 837 0170 0020     		movs	r0, #0
 838 0172 0021     		movs	r1, #0
 839 0174 FFF7FEFF 		bl	LCD_Position
 261:main.c        ****                     LCD_PrintString(lineStr);
 840              		.loc 1 261 0
 841 0178 3B46     		mov	r3, r7
 842 017a 1846     		mov	r0, r3
 843 017c FFF7FEFF 		bl	LCD_PrintString
 844              	.L29:
 262:main.c        ****                 }
 263:main.c        **** 
 264:main.c        ****                 /* Output on LCD Line Control settings. */
 265:main.c        ****                 if (0u != (state & USBUART_LINE_CONTROL_CHANGED))
 845              		.loc 1 265 0
 846 0180 97F85730 		ldrb	r3, [r7, #87]	@ zero_extendqisi2
 847 0184 03F00203 		and	r3, r3, #2
 848 0188 002B     		cmp	r3, #0
 849 018a 1BD0     		beq	.L25
 266:main.c        ****                 {                   
 267:main.c        ****                     /* Get string to output. */
 268:main.c        ****                     state = USBUART_GetLineControl();
 850              		.loc 1 268 0
 851 018c FFF7FEFF 		bl	USBUART_GetLineControl
 852 0190 0346     		mov	r3, r0
 853 0192 87F85730 		strb	r3, [r7, #87]
 269:main.c        ****                     sprintf(lineStr,"DTR:%s,RTS:%s",  (0u != (state & USBUART_LINE_CONTROL_DTR)) ? 
ARM GAS  C:\Users\labadmin\AppData\Local\Temp\ccGL8T0V.s 			page 21


 854              		.loc 1 269 0
 855 0196 97F85730 		ldrb	r3, [r7, #87]	@ zero_extendqisi2
 856 019a 03F00103 		and	r3, r3, #1
 857 019e 002B     		cmp	r3, #0
 858 01a0 01D0     		beq	.L30
 859              		.loc 1 269 0 is_stmt 0 discriminator 1
 860 01a2 0D4A     		ldr	r2, .L35+16
 861 01a4 00E0     		b	.L31
 862              	.L30:
 863              		.loc 1 269 0 discriminator 2
 864 01a6 0D4A     		ldr	r2, .L35+20
 865              	.L31:
 270:main.c        ****                                                       (0u != (state & USBUART_LINE_CONTROL_RTS)) ? 
 866              		.loc 1 270 0 is_stmt 1 discriminator 4
 867 01a8 97F85730 		ldrb	r3, [r7, #87]	@ zero_extendqisi2
 868 01ac 03F00203 		and	r3, r3, #2
 269:main.c        ****                     sprintf(lineStr,"DTR:%s,RTS:%s",  (0u != (state & USBUART_LINE_CONTROL_DTR)) ? 
 869              		.loc 1 269 0 discriminator 4
 870 01b0 002B     		cmp	r3, #0
 871 01b2 01D0     		beq	.L32
 269:main.c        ****                     sprintf(lineStr,"DTR:%s,RTS:%s",  (0u != (state & USBUART_LINE_CONTROL_DTR)) ? 
 872              		.loc 1 269 0 is_stmt 0 discriminator 5
 873 01b4 084B     		ldr	r3, .L35+16
 874 01b6 00E0     		b	.L33
 875              	.L32:
 269:main.c        ****                     sprintf(lineStr,"DTR:%s,RTS:%s",  (0u != (state & USBUART_LINE_CONTROL_DTR)) ? 
 876              		.loc 1 269 0 discriminator 6
 877 01b8 084B     		ldr	r3, .L35+20
 878              	.L33:
 269:main.c        ****                     sprintf(lineStr,"DTR:%s,RTS:%s",  (0u != (state & USBUART_LINE_CONTROL_DTR)) ? 
 879              		.loc 1 269 0 discriminator 8
 880 01ba 3946     		mov	r1, r7
 881 01bc 0846     		mov	r0, r1
 882 01be 0849     		ldr	r1, .L35+24
 883 01c0 FFF7FEFF 		bl	sprintf
 884              	.L25:
 271:main.c        **** 
 272:main.c        ****                     /* Clear LCD line. */
 273:main.c        ****                     //LCD_Position(1u, 0u);
 274:main.c        ****                     //LCD_PrintString("                    ");
 275:main.c        **** 
 276:main.c        ****                     /* Output string on LCD. */
 277:main.c        ****                     //LCD_Position(1u, 0u);
 278:main.c        ****                     //LCD_PrintString(lineStr);
 279:main.c        ****                 }
 280:main.c        ****             }
 281:main.c        ****         #endif /* (CY_PSOC3 || CY_PSOC5LP) */
 282:main.c        ****         }
 283:main.c        ****     }
 885              		.loc 1 283 0 is_stmt 1
 886 01c4 56E7     		b	.L34
 887              	.L36:
 888 01c6 00BF     		.align	2
 889              	.L35:
 890 01c8 00000000 		.word	parity
 891 01cc 00000000 		.word	stop
 892 01d0 38000000 		.word	.LC9
ARM GAS  C:\Users\labadmin\AppData\Local\Temp\ccGL8T0V.s 			page 22


 893 01d4 48000000 		.word	.LC10
 894 01d8 60000000 		.word	.LC11
 895 01dc 64000000 		.word	.LC12
 896 01e0 68000000 		.word	.LC13
 897              		.cfi_endproc
 898              	.LFE68:
 899              		.size	main, .-main
 900              		.text
 901              	.Letext0:
 902              		.file 2 "c:\\program files (x86)\\cypress\\psoc creator\\4.0\\psoc creator\\import\\gnu\\arm\\4.9.
 903              		.file 3 "c:\\program files (x86)\\cypress\\psoc creator\\4.0\\psoc creator\\import\\gnu\\arm\\4.9.
 904              		.file 4 "Generated_Source\\PSoC5/cytypes.h"
 905              		.file 5 "Generated_Source\\PSoC5/core_cm3.h"
 906              		.section	.debug_info,"",%progbits
 907              	.Ldebug_info0:
 908 0000 AD030000 		.4byte	0x3ad
 909 0004 0400     		.2byte	0x4
 910 0006 00000000 		.4byte	.Ldebug_abbrev0
 911 000a 04       		.byte	0x4
 912 000b 01       		.uleb128 0x1
 913 000c 80000000 		.4byte	.LASF30
 914 0010 01       		.byte	0x1
 915 0011 71010000 		.4byte	.LASF31
 916 0015 A3010000 		.4byte	.LASF32
 917 0019 00000000 		.4byte	.Ldebug_ranges0+0
 918 001d 00000000 		.4byte	0
 919 0021 00000000 		.4byte	.Ldebug_line0
 920 0025 02       		.uleb128 0x2
 921 0026 01       		.byte	0x1
 922 0027 06       		.byte	0x6
 923 0028 1B000000 		.4byte	.LASF0
 924 002c 02       		.uleb128 0x2
 925 002d 01       		.byte	0x1
 926 002e 08       		.byte	0x8
 927 002f 27000000 		.4byte	.LASF1
 928 0033 02       		.uleb128 0x2
 929 0034 02       		.byte	0x2
 930 0035 05       		.byte	0x5
 931 0036 83010000 		.4byte	.LASF2
 932 003a 02       		.uleb128 0x2
 933 003b 02       		.byte	0x2
 934 003c 07       		.byte	0x7
 935 003d 4D000000 		.4byte	.LASF3
 936 0041 03       		.uleb128 0x3
 937 0042 06000000 		.4byte	.LASF9
 938 0046 02       		.byte	0x2
 939 0047 3F       		.byte	0x3f
 940 0048 4C000000 		.4byte	0x4c
 941 004c 02       		.uleb128 0x2
 942 004d 04       		.byte	0x4
 943 004e 05       		.byte	0x5
 944 004f 9A010000 		.4byte	.LASF4
 945 0053 02       		.uleb128 0x2
 946 0054 04       		.byte	0x4
 947 0055 07       		.byte	0x7
 948 0056 3B000000 		.4byte	.LASF5
 949 005a 02       		.uleb128 0x2
ARM GAS  C:\Users\labadmin\AppData\Local\Temp\ccGL8T0V.s 			page 23


 950 005b 08       		.byte	0x8
 951 005c 05       		.byte	0x5
 952 005d 63010000 		.4byte	.LASF6
 953 0061 02       		.uleb128 0x2
 954 0062 08       		.byte	0x8
 955 0063 07       		.byte	0x7
 956 0064 3B010000 		.4byte	.LASF7
 957 0068 04       		.uleb128 0x4
 958 0069 04       		.byte	0x4
 959 006a 05       		.byte	0x5
 960 006b 696E7400 		.ascii	"int\000"
 961 006f 02       		.uleb128 0x2
 962 0070 04       		.byte	0x4
 963 0071 07       		.byte	0x7
 964 0072 2E010000 		.4byte	.LASF8
 965 0076 03       		.uleb128 0x3
 966 0077 52010000 		.4byte	.LASF10
 967 007b 03       		.byte	0x3
 968 007c 2C       		.byte	0x2c
 969 007d 41000000 		.4byte	0x41
 970 0081 05       		.uleb128 0x5
 971 0082 94010000 		.4byte	.LASF11
 972 0086 04       		.byte	0x4
 973 0087 9201     		.2byte	0x192
 974 0089 2C000000 		.4byte	0x2c
 975 008d 05       		.uleb128 0x5
 976 008e 1A010000 		.4byte	.LASF12
 977 0092 04       		.byte	0x4
 978 0093 9301     		.2byte	0x193
 979 0095 3A000000 		.4byte	0x3a
 980 0099 02       		.uleb128 0x2
 981 009a 04       		.byte	0x4
 982 009b 04       		.byte	0x4
 983 009c 15000000 		.4byte	.LASF13
 984 00a0 02       		.uleb128 0x2
 985 00a1 08       		.byte	0x8
 986 00a2 04       		.byte	0x4
 987 00a3 0E010000 		.4byte	.LASF14
 988 00a7 05       		.uleb128 0x5
 989 00a8 35000000 		.4byte	.LASF15
 990 00ac 04       		.byte	0x4
 991 00ad A301     		.2byte	0x1a3
 992 00af B3000000 		.4byte	0xb3
 993 00b3 02       		.uleb128 0x2
 994 00b4 01       		.byte	0x1
 995 00b5 08       		.byte	0x8
 996 00b6 78010000 		.4byte	.LASF16
 997 00ba 02       		.uleb128 0x2
 998 00bb 04       		.byte	0x4
 999 00bc 07       		.byte	0x7
 1000 00bd 5A010000 		.4byte	.LASF17
 1001 00c1 06       		.uleb128 0x6
 1002 00c2 60000000 		.4byte	.LASF18
 1003 00c6 01       		.byte	0x1
 1004 00c7 47       		.byte	0x47
 1005 00c8 68000000 		.4byte	0x68
 1006 00cc 00000000 		.4byte	.LFB63
ARM GAS  C:\Users\labadmin\AppData\Local\Temp\ccGL8T0V.s 			page 24


 1007 00d0 B8000000 		.4byte	.LFE63-.LFB63
 1008 00d4 01       		.uleb128 0x1
 1009 00d5 9C       		.byte	0x9c
 1010 00d6 34010000 		.4byte	0x134
 1011 00da 07       		.uleb128 0x7
 1012 00db 6100     		.ascii	"a\000"
 1013 00dd 01       		.byte	0x1
 1014 00de 47       		.byte	0x47
 1015 00df 68000000 		.4byte	0x68
 1016 00e3 02       		.uleb128 0x2
 1017 00e4 91       		.byte	0x91
 1018 00e5 64       		.sleb128 -28
 1019 00e6 07       		.uleb128 0x7
 1020 00e7 6200     		.ascii	"b\000"
 1021 00e9 01       		.byte	0x1
 1022 00ea 47       		.byte	0x47
 1023 00eb 68000000 		.4byte	0x68
 1024 00ef 02       		.uleb128 0x2
 1025 00f0 91       		.byte	0x91
 1026 00f1 60       		.sleb128 -32
 1027 00f2 07       		.uleb128 0x7
 1028 00f3 6300     		.ascii	"c\000"
 1029 00f5 01       		.byte	0x1
 1030 00f6 47       		.byte	0x47
 1031 00f7 68000000 		.4byte	0x68
 1032 00fb 02       		.uleb128 0x2
 1033 00fc 91       		.byte	0x91
 1034 00fd 5C       		.sleb128 -36
 1035 00fe 08       		.uleb128 0x8
 1036 00ff 763100   		.ascii	"v1\000"
 1037 0102 01       		.byte	0x1
 1038 0103 49       		.byte	0x49
 1039 0104 68000000 		.4byte	0x68
 1040 0108 02       		.uleb128 0x2
 1041 0109 91       		.byte	0x91
 1042 010a 74       		.sleb128 -12
 1043 010b 08       		.uleb128 0x8
 1044 010c 763200   		.ascii	"v2\000"
 1045 010f 01       		.byte	0x1
 1046 0110 4A       		.byte	0x4a
 1047 0111 68000000 		.4byte	0x68
 1048 0115 02       		.uleb128 0x2
 1049 0116 91       		.byte	0x91
 1050 0117 70       		.sleb128 -16
 1051 0118 08       		.uleb128 0x8
 1052 0119 763300   		.ascii	"v3\000"
 1053 011c 01       		.byte	0x1
 1054 011d 4B       		.byte	0x4b
 1055 011e 68000000 		.4byte	0x68
 1056 0122 02       		.uleb128 0x2
 1057 0123 91       		.byte	0x91
 1058 0124 6C       		.sleb128 -20
 1059 0125 08       		.uleb128 0x8
 1060 0126 76616C00 		.ascii	"val\000"
 1061 012a 01       		.byte	0x1
 1062 012b 4C       		.byte	0x4c
 1063 012c 81000000 		.4byte	0x81
ARM GAS  C:\Users\labadmin\AppData\Local\Temp\ccGL8T0V.s 			page 25


 1064 0130 02       		.uleb128 0x2
 1065 0131 91       		.byte	0x91
 1066 0132 6B       		.sleb128 -21
 1067 0133 00       		.byte	0
 1068 0134 06       		.uleb128 0x6
 1069 0135 68000000 		.4byte	.LASF19
 1070 0139 01       		.byte	0x1
 1071 013a 57       		.byte	0x57
 1072 013b 68000000 		.4byte	0x68
 1073 013f 00000000 		.4byte	.LFB64
 1074 0143 B8000000 		.4byte	.LFE64-.LFB64
 1075 0147 01       		.uleb128 0x1
 1076 0148 9C       		.byte	0x9c
 1077 0149 A7010000 		.4byte	0x1a7
 1078 014d 07       		.uleb128 0x7
 1079 014e 6100     		.ascii	"a\000"
 1080 0150 01       		.byte	0x1
 1081 0151 57       		.byte	0x57
 1082 0152 68000000 		.4byte	0x68
 1083 0156 02       		.uleb128 0x2
 1084 0157 91       		.byte	0x91
 1085 0158 64       		.sleb128 -28
 1086 0159 07       		.uleb128 0x7
 1087 015a 6200     		.ascii	"b\000"
 1088 015c 01       		.byte	0x1
 1089 015d 57       		.byte	0x57
 1090 015e 68000000 		.4byte	0x68
 1091 0162 02       		.uleb128 0x2
 1092 0163 91       		.byte	0x91
 1093 0164 60       		.sleb128 -32
 1094 0165 07       		.uleb128 0x7
 1095 0166 6300     		.ascii	"c\000"
 1096 0168 01       		.byte	0x1
 1097 0169 57       		.byte	0x57
 1098 016a 68000000 		.4byte	0x68
 1099 016e 02       		.uleb128 0x2
 1100 016f 91       		.byte	0x91
 1101 0170 5C       		.sleb128 -36
 1102 0171 08       		.uleb128 0x8
 1103 0172 763100   		.ascii	"v1\000"
 1104 0175 01       		.byte	0x1
 1105 0176 58       		.byte	0x58
 1106 0177 68000000 		.4byte	0x68
 1107 017b 02       		.uleb128 0x2
 1108 017c 91       		.byte	0x91
 1109 017d 74       		.sleb128 -12
 1110 017e 08       		.uleb128 0x8
 1111 017f 763200   		.ascii	"v2\000"
 1112 0182 01       		.byte	0x1
 1113 0183 59       		.byte	0x59
 1114 0184 68000000 		.4byte	0x68
 1115 0188 02       		.uleb128 0x2
 1116 0189 91       		.byte	0x91
 1117 018a 70       		.sleb128 -16
 1118 018b 08       		.uleb128 0x8
 1119 018c 763300   		.ascii	"v3\000"
 1120 018f 01       		.byte	0x1
ARM GAS  C:\Users\labadmin\AppData\Local\Temp\ccGL8T0V.s 			page 26


 1121 0190 5A       		.byte	0x5a
 1122 0191 68000000 		.4byte	0x68
 1123 0195 02       		.uleb128 0x2
 1124 0196 91       		.byte	0x91
 1125 0197 6C       		.sleb128 -20
 1126 0198 08       		.uleb128 0x8
 1127 0199 76616C00 		.ascii	"val\000"
 1128 019d 01       		.byte	0x1
 1129 019e 5B       		.byte	0x5b
 1130 019f 81000000 		.4byte	0x81
 1131 01a3 02       		.uleb128 0x2
 1132 01a4 91       		.byte	0x91
 1133 01a5 6B       		.sleb128 -21
 1134 01a6 00       		.byte	0
 1135 01a7 06       		.uleb128 0x6
 1136 01a8 70000000 		.4byte	.LASF20
 1137 01ac 01       		.byte	0x1
 1138 01ad 66       		.byte	0x66
 1139 01ae 68000000 		.4byte	0x68
 1140 01b2 00000000 		.4byte	.LFB65
 1141 01b6 B8000000 		.4byte	.LFE65-.LFB65
 1142 01ba 01       		.uleb128 0x1
 1143 01bb 9C       		.byte	0x9c
 1144 01bc 1A020000 		.4byte	0x21a
 1145 01c0 07       		.uleb128 0x7
 1146 01c1 6100     		.ascii	"a\000"
 1147 01c3 01       		.byte	0x1
 1148 01c4 66       		.byte	0x66
 1149 01c5 68000000 		.4byte	0x68
 1150 01c9 02       		.uleb128 0x2
 1151 01ca 91       		.byte	0x91
 1152 01cb 64       		.sleb128 -28
 1153 01cc 07       		.uleb128 0x7
 1154 01cd 6200     		.ascii	"b\000"
 1155 01cf 01       		.byte	0x1
 1156 01d0 66       		.byte	0x66
 1157 01d1 68000000 		.4byte	0x68
 1158 01d5 02       		.uleb128 0x2
 1159 01d6 91       		.byte	0x91
 1160 01d7 60       		.sleb128 -32
 1161 01d8 07       		.uleb128 0x7
 1162 01d9 6300     		.ascii	"c\000"
 1163 01db 01       		.byte	0x1
 1164 01dc 66       		.byte	0x66
 1165 01dd 68000000 		.4byte	0x68
 1166 01e1 02       		.uleb128 0x2
 1167 01e2 91       		.byte	0x91
 1168 01e3 5C       		.sleb128 -36
 1169 01e4 08       		.uleb128 0x8
 1170 01e5 763100   		.ascii	"v1\000"
 1171 01e8 01       		.byte	0x1
 1172 01e9 67       		.byte	0x67
 1173 01ea 68000000 		.4byte	0x68
 1174 01ee 02       		.uleb128 0x2
 1175 01ef 91       		.byte	0x91
 1176 01f0 74       		.sleb128 -12
 1177 01f1 08       		.uleb128 0x8
ARM GAS  C:\Users\labadmin\AppData\Local\Temp\ccGL8T0V.s 			page 27


 1178 01f2 763200   		.ascii	"v2\000"
 1179 01f5 01       		.byte	0x1
 1180 01f6 68       		.byte	0x68
 1181 01f7 68000000 		.4byte	0x68
 1182 01fb 02       		.uleb128 0x2
 1183 01fc 91       		.byte	0x91
 1184 01fd 70       		.sleb128 -16
 1185 01fe 08       		.uleb128 0x8
 1186 01ff 763300   		.ascii	"v3\000"
 1187 0202 01       		.byte	0x1
 1188 0203 69       		.byte	0x69
 1189 0204 68000000 		.4byte	0x68
 1190 0208 02       		.uleb128 0x2
 1191 0209 91       		.byte	0x91
 1192 020a 6C       		.sleb128 -20
 1193 020b 08       		.uleb128 0x8
 1194 020c 76616C00 		.ascii	"val\000"
 1195 0210 01       		.byte	0x1
 1196 0211 6A       		.byte	0x6a
 1197 0212 81000000 		.4byte	0x81
 1198 0216 02       		.uleb128 0x2
 1199 0217 91       		.byte	0x91
 1200 0218 6B       		.sleb128 -21
 1201 0219 00       		.byte	0
 1202 021a 06       		.uleb128 0x6
 1203 021b 78000000 		.4byte	.LASF21
 1204 021f 01       		.byte	0x1
 1205 0220 75       		.byte	0x75
 1206 0221 68000000 		.4byte	0x68
 1207 0225 00000000 		.4byte	.LFB66
 1208 0229 B8000000 		.4byte	.LFE66-.LFB66
 1209 022d 01       		.uleb128 0x1
 1210 022e 9C       		.byte	0x9c
 1211 022f 8D020000 		.4byte	0x28d
 1212 0233 07       		.uleb128 0x7
 1213 0234 6100     		.ascii	"a\000"
 1214 0236 01       		.byte	0x1
 1215 0237 75       		.byte	0x75
 1216 0238 68000000 		.4byte	0x68
 1217 023c 02       		.uleb128 0x2
 1218 023d 91       		.byte	0x91
 1219 023e 64       		.sleb128 -28
 1220 023f 07       		.uleb128 0x7
 1221 0240 6200     		.ascii	"b\000"
 1222 0242 01       		.byte	0x1
 1223 0243 75       		.byte	0x75
 1224 0244 68000000 		.4byte	0x68
 1225 0248 02       		.uleb128 0x2
 1226 0249 91       		.byte	0x91
 1227 024a 60       		.sleb128 -32
 1228 024b 07       		.uleb128 0x7
 1229 024c 6300     		.ascii	"c\000"
 1230 024e 01       		.byte	0x1
 1231 024f 75       		.byte	0x75
 1232 0250 68000000 		.4byte	0x68
 1233 0254 02       		.uleb128 0x2
 1234 0255 91       		.byte	0x91
ARM GAS  C:\Users\labadmin\AppData\Local\Temp\ccGL8T0V.s 			page 28


 1235 0256 5C       		.sleb128 -36
 1236 0257 08       		.uleb128 0x8
 1237 0258 763100   		.ascii	"v1\000"
 1238 025b 01       		.byte	0x1
 1239 025c 76       		.byte	0x76
 1240 025d 68000000 		.4byte	0x68
 1241 0261 02       		.uleb128 0x2
 1242 0262 91       		.byte	0x91
 1243 0263 74       		.sleb128 -12
 1244 0264 08       		.uleb128 0x8
 1245 0265 763200   		.ascii	"v2\000"
 1246 0268 01       		.byte	0x1
 1247 0269 77       		.byte	0x77
 1248 026a 68000000 		.4byte	0x68
 1249 026e 02       		.uleb128 0x2
 1250 026f 91       		.byte	0x91
 1251 0270 70       		.sleb128 -16
 1252 0271 08       		.uleb128 0x8
 1253 0272 763300   		.ascii	"v3\000"
 1254 0275 01       		.byte	0x1
 1255 0276 78       		.byte	0x78
 1256 0277 68000000 		.4byte	0x68
 1257 027b 02       		.uleb128 0x2
 1258 027c 91       		.byte	0x91
 1259 027d 6C       		.sleb128 -20
 1260 027e 08       		.uleb128 0x8
 1261 027f 76616C00 		.ascii	"val\000"
 1262 0283 01       		.byte	0x1
 1263 0284 79       		.byte	0x79
 1264 0285 81000000 		.4byte	0x81
 1265 0289 02       		.uleb128 0x2
 1266 028a 91       		.byte	0x91
 1267 028b 6B       		.sleb128 -21
 1268 028c 00       		.byte	0
 1269 028d 06       		.uleb128 0x6
 1270 028e EB010000 		.4byte	.LASF22
 1271 0292 01       		.byte	0x1
 1272 0293 86       		.byte	0x86
 1273 0294 68000000 		.4byte	0x68
 1274 0298 00000000 		.4byte	.LFB67
 1275 029c 5E000000 		.4byte	.LFE67-.LFB67
 1276 02a0 01       		.uleb128 0x1
 1277 02a1 9C       		.byte	0x9c
 1278 02a2 E3020000 		.4byte	0x2e3
 1279 02a6 07       		.uleb128 0x7
 1280 02a7 6100     		.ascii	"a\000"
 1281 02a9 01       		.byte	0x1
 1282 02aa 86       		.byte	0x86
 1283 02ab 68000000 		.4byte	0x68
 1284 02af 02       		.uleb128 0x2
 1285 02b0 91       		.byte	0x91
 1286 02b1 6C       		.sleb128 -20
 1287 02b2 07       		.uleb128 0x7
 1288 02b3 6200     		.ascii	"b\000"
 1289 02b5 01       		.byte	0x1
 1290 02b6 86       		.byte	0x86
 1291 02b7 68000000 		.4byte	0x68
ARM GAS  C:\Users\labadmin\AppData\Local\Temp\ccGL8T0V.s 			page 29


 1292 02bb 02       		.uleb128 0x2
 1293 02bc 91       		.byte	0x91
 1294 02bd 68       		.sleb128 -24
 1295 02be 07       		.uleb128 0x7
 1296 02bf 6300     		.ascii	"c\000"
 1297 02c1 01       		.byte	0x1
 1298 02c2 86       		.byte	0x86
 1299 02c3 68000000 		.4byte	0x68
 1300 02c7 02       		.uleb128 0x2
 1301 02c8 91       		.byte	0x91
 1302 02c9 64       		.sleb128 -28
 1303 02ca 07       		.uleb128 0x7
 1304 02cb 6400     		.ascii	"d\000"
 1305 02cd 01       		.byte	0x1
 1306 02ce 86       		.byte	0x86
 1307 02cf 68000000 		.4byte	0x68
 1308 02d3 02       		.uleb128 0x2
 1309 02d4 91       		.byte	0x91
 1310 02d5 60       		.sleb128 -32
 1311 02d6 08       		.uleb128 0x8
 1312 02d7 7600     		.ascii	"v\000"
 1313 02d9 01       		.byte	0x1
 1314 02da 88       		.byte	0x88
 1315 02db 68000000 		.4byte	0x68
 1316 02df 02       		.uleb128 0x2
 1317 02e0 91       		.byte	0x91
 1318 02e1 74       		.sleb128 -12
 1319 02e2 00       		.byte	0
 1320 02e3 09       		.uleb128 0x9
 1321 02e4 15010000 		.4byte	.LASF33
 1322 02e8 01       		.byte	0x1
 1323 02e9 96       		.byte	0x96
 1324 02ea 68000000 		.4byte	0x68
 1325 02ee 00000000 		.4byte	.LFB68
 1326 02f2 E4010000 		.4byte	.LFE68-.LFB68
 1327 02f6 01       		.uleb128 0x1
 1328 02f7 9C       		.byte	0x9c
 1329 02f8 37030000 		.4byte	0x337
 1330 02fc 0A       		.uleb128 0xa
 1331 02fd 7D010000 		.4byte	.LASF23
 1332 0301 01       		.byte	0x1
 1333 0302 98       		.byte	0x98
 1334 0303 8D000000 		.4byte	0x8d
 1335 0307 02       		.uleb128 0x2
 1336 0308 91       		.byte	0x91
 1337 0309 64       		.sleb128 -28
 1338 030a 0A       		.uleb128 0xa
 1339 030b 8D010000 		.4byte	.LASF24
 1340 030f 01       		.byte	0x1
 1341 0310 99       		.byte	0x99
 1342 0311 37030000 		.4byte	0x337
 1343 0315 03       		.uleb128 0x3
 1344 0316 91       		.byte	0x91
 1345 0317 A47F     		.sleb128 -92
 1346 0319 0A       		.uleb128 0xa
 1347 031a 00000000 		.4byte	.LASF25
 1348 031e 01       		.byte	0x1
ARM GAS  C:\Users\labadmin\AppData\Local\Temp\ccGL8T0V.s 			page 30


 1349 031f 9C       		.byte	0x9c
 1350 0320 81000000 		.4byte	0x81
 1351 0324 02       		.uleb128 0x2
 1352 0325 91       		.byte	0x91
 1353 0326 67       		.sleb128 -25
 1354 0327 0A       		.uleb128 0xa
 1355 0328 FA010000 		.4byte	.LASF26
 1356 032c 01       		.byte	0x1
 1357 032d 9D       		.byte	0x9d
 1358 032e 47030000 		.4byte	0x347
 1359 0332 03       		.uleb128 0x3
 1360 0333 91       		.byte	0x91
 1361 0334 907F     		.sleb128 -112
 1362 0336 00       		.byte	0
 1363 0337 0B       		.uleb128 0xb
 1364 0338 81000000 		.4byte	0x81
 1365 033c 47030000 		.4byte	0x347
 1366 0340 0C       		.uleb128 0xc
 1367 0341 BA000000 		.4byte	0xba
 1368 0345 3F       		.byte	0x3f
 1369 0346 00       		.byte	0
 1370 0347 0B       		.uleb128 0xb
 1371 0348 A7000000 		.4byte	0xa7
 1372 034c 57030000 		.4byte	0x357
 1373 0350 0C       		.uleb128 0xc
 1374 0351 BA000000 		.4byte	0xba
 1375 0355 13       		.byte	0x13
 1376 0356 00       		.byte	0
 1377 0357 0D       		.uleb128 0xd
 1378 0358 21010000 		.4byte	.LASF27
 1379 035c 05       		.byte	0x5
 1380 035d 9606     		.2byte	0x696
 1381 035f 63030000 		.4byte	0x363
 1382 0363 0E       		.uleb128 0xe
 1383 0364 76000000 		.4byte	0x76
 1384 0368 0B       		.uleb128 0xb
 1385 0369 78030000 		.4byte	0x378
 1386 036d 78030000 		.4byte	0x378
 1387 0371 0C       		.uleb128 0xc
 1388 0372 BA000000 		.4byte	0xba
 1389 0376 04       		.byte	0x4
 1390 0377 00       		.byte	0
 1391 0378 0F       		.uleb128 0xf
 1392 0379 04       		.byte	0x4
 1393 037a A7000000 		.4byte	0xa7
 1394 037e 10       		.uleb128 0x10
 1395 037f E4010000 		.4byte	.LASF28
 1396 0383 01       		.byte	0x1
 1397 0384 2D       		.byte	0x2d
 1398 0385 68030000 		.4byte	0x368
 1399 0389 05       		.uleb128 0x5
 1400 038a 03       		.byte	0x3
 1401 038b 00000000 		.4byte	parity
 1402 038f 0B       		.uleb128 0xb
 1403 0390 78030000 		.4byte	0x378
 1404 0394 9F030000 		.4byte	0x39f
 1405 0398 0C       		.uleb128 0xc
ARM GAS  C:\Users\labadmin\AppData\Local\Temp\ccGL8T0V.s 			page 31


 1406 0399 BA000000 		.4byte	0xba
 1407 039d 02       		.byte	0x2
 1408 039e 00       		.byte	0
 1409 039f 10       		.uleb128 0x10
 1410 03a0 10000000 		.4byte	.LASF29
 1411 03a4 01       		.byte	0x1
 1412 03a5 2E       		.byte	0x2e
 1413 03a6 8F030000 		.4byte	0x38f
 1414 03aa 05       		.uleb128 0x5
 1415 03ab 03       		.byte	0x3
 1416 03ac 00000000 		.4byte	stop
 1417 03b0 00       		.byte	0
 1418              		.section	.debug_abbrev,"",%progbits
 1419              	.Ldebug_abbrev0:
 1420 0000 01       		.uleb128 0x1
 1421 0001 11       		.uleb128 0x11
 1422 0002 01       		.byte	0x1
 1423 0003 25       		.uleb128 0x25
 1424 0004 0E       		.uleb128 0xe
 1425 0005 13       		.uleb128 0x13
 1426 0006 0B       		.uleb128 0xb
 1427 0007 03       		.uleb128 0x3
 1428 0008 0E       		.uleb128 0xe
 1429 0009 1B       		.uleb128 0x1b
 1430 000a 0E       		.uleb128 0xe
 1431 000b 55       		.uleb128 0x55
 1432 000c 17       		.uleb128 0x17
 1433 000d 11       		.uleb128 0x11
 1434 000e 01       		.uleb128 0x1
 1435 000f 10       		.uleb128 0x10
 1436 0010 17       		.uleb128 0x17
 1437 0011 00       		.byte	0
 1438 0012 00       		.byte	0
 1439 0013 02       		.uleb128 0x2
 1440 0014 24       		.uleb128 0x24
 1441 0015 00       		.byte	0
 1442 0016 0B       		.uleb128 0xb
 1443 0017 0B       		.uleb128 0xb
 1444 0018 3E       		.uleb128 0x3e
 1445 0019 0B       		.uleb128 0xb
 1446 001a 03       		.uleb128 0x3
 1447 001b 0E       		.uleb128 0xe
 1448 001c 00       		.byte	0
 1449 001d 00       		.byte	0
 1450 001e 03       		.uleb128 0x3
 1451 001f 16       		.uleb128 0x16
 1452 0020 00       		.byte	0
 1453 0021 03       		.uleb128 0x3
 1454 0022 0E       		.uleb128 0xe
 1455 0023 3A       		.uleb128 0x3a
 1456 0024 0B       		.uleb128 0xb
 1457 0025 3B       		.uleb128 0x3b
 1458 0026 0B       		.uleb128 0xb
 1459 0027 49       		.uleb128 0x49
 1460 0028 13       		.uleb128 0x13
 1461 0029 00       		.byte	0
 1462 002a 00       		.byte	0
ARM GAS  C:\Users\labadmin\AppData\Local\Temp\ccGL8T0V.s 			page 32


 1463 002b 04       		.uleb128 0x4
 1464 002c 24       		.uleb128 0x24
 1465 002d 00       		.byte	0
 1466 002e 0B       		.uleb128 0xb
 1467 002f 0B       		.uleb128 0xb
 1468 0030 3E       		.uleb128 0x3e
 1469 0031 0B       		.uleb128 0xb
 1470 0032 03       		.uleb128 0x3
 1471 0033 08       		.uleb128 0x8
 1472 0034 00       		.byte	0
 1473 0035 00       		.byte	0
 1474 0036 05       		.uleb128 0x5
 1475 0037 16       		.uleb128 0x16
 1476 0038 00       		.byte	0
 1477 0039 03       		.uleb128 0x3
 1478 003a 0E       		.uleb128 0xe
 1479 003b 3A       		.uleb128 0x3a
 1480 003c 0B       		.uleb128 0xb
 1481 003d 3B       		.uleb128 0x3b
 1482 003e 05       		.uleb128 0x5
 1483 003f 49       		.uleb128 0x49
 1484 0040 13       		.uleb128 0x13
 1485 0041 00       		.byte	0
 1486 0042 00       		.byte	0
 1487 0043 06       		.uleb128 0x6
 1488 0044 2E       		.uleb128 0x2e
 1489 0045 01       		.byte	0x1
 1490 0046 3F       		.uleb128 0x3f
 1491 0047 19       		.uleb128 0x19
 1492 0048 03       		.uleb128 0x3
 1493 0049 0E       		.uleb128 0xe
 1494 004a 3A       		.uleb128 0x3a
 1495 004b 0B       		.uleb128 0xb
 1496 004c 3B       		.uleb128 0x3b
 1497 004d 0B       		.uleb128 0xb
 1498 004e 27       		.uleb128 0x27
 1499 004f 19       		.uleb128 0x19
 1500 0050 49       		.uleb128 0x49
 1501 0051 13       		.uleb128 0x13
 1502 0052 11       		.uleb128 0x11
 1503 0053 01       		.uleb128 0x1
 1504 0054 12       		.uleb128 0x12
 1505 0055 06       		.uleb128 0x6
 1506 0056 40       		.uleb128 0x40
 1507 0057 18       		.uleb128 0x18
 1508 0058 9642     		.uleb128 0x2116
 1509 005a 19       		.uleb128 0x19
 1510 005b 01       		.uleb128 0x1
 1511 005c 13       		.uleb128 0x13
 1512 005d 00       		.byte	0
 1513 005e 00       		.byte	0
 1514 005f 07       		.uleb128 0x7
 1515 0060 05       		.uleb128 0x5
 1516 0061 00       		.byte	0
 1517 0062 03       		.uleb128 0x3
 1518 0063 08       		.uleb128 0x8
 1519 0064 3A       		.uleb128 0x3a
ARM GAS  C:\Users\labadmin\AppData\Local\Temp\ccGL8T0V.s 			page 33


 1520 0065 0B       		.uleb128 0xb
 1521 0066 3B       		.uleb128 0x3b
 1522 0067 0B       		.uleb128 0xb
 1523 0068 49       		.uleb128 0x49
 1524 0069 13       		.uleb128 0x13
 1525 006a 02       		.uleb128 0x2
 1526 006b 18       		.uleb128 0x18
 1527 006c 00       		.byte	0
 1528 006d 00       		.byte	0
 1529 006e 08       		.uleb128 0x8
 1530 006f 34       		.uleb128 0x34
 1531 0070 00       		.byte	0
 1532 0071 03       		.uleb128 0x3
 1533 0072 08       		.uleb128 0x8
 1534 0073 3A       		.uleb128 0x3a
 1535 0074 0B       		.uleb128 0xb
 1536 0075 3B       		.uleb128 0x3b
 1537 0076 0B       		.uleb128 0xb
 1538 0077 49       		.uleb128 0x49
 1539 0078 13       		.uleb128 0x13
 1540 0079 02       		.uleb128 0x2
 1541 007a 18       		.uleb128 0x18
 1542 007b 00       		.byte	0
 1543 007c 00       		.byte	0
 1544 007d 09       		.uleb128 0x9
 1545 007e 2E       		.uleb128 0x2e
 1546 007f 01       		.byte	0x1
 1547 0080 3F       		.uleb128 0x3f
 1548 0081 19       		.uleb128 0x19
 1549 0082 03       		.uleb128 0x3
 1550 0083 0E       		.uleb128 0xe
 1551 0084 3A       		.uleb128 0x3a
 1552 0085 0B       		.uleb128 0xb
 1553 0086 3B       		.uleb128 0x3b
 1554 0087 0B       		.uleb128 0xb
 1555 0088 49       		.uleb128 0x49
 1556 0089 13       		.uleb128 0x13
 1557 008a 11       		.uleb128 0x11
 1558 008b 01       		.uleb128 0x1
 1559 008c 12       		.uleb128 0x12
 1560 008d 06       		.uleb128 0x6
 1561 008e 40       		.uleb128 0x40
 1562 008f 18       		.uleb128 0x18
 1563 0090 9642     		.uleb128 0x2116
 1564 0092 19       		.uleb128 0x19
 1565 0093 01       		.uleb128 0x1
 1566 0094 13       		.uleb128 0x13
 1567 0095 00       		.byte	0
 1568 0096 00       		.byte	0
 1569 0097 0A       		.uleb128 0xa
 1570 0098 34       		.uleb128 0x34
 1571 0099 00       		.byte	0
 1572 009a 03       		.uleb128 0x3
 1573 009b 0E       		.uleb128 0xe
 1574 009c 3A       		.uleb128 0x3a
 1575 009d 0B       		.uleb128 0xb
 1576 009e 3B       		.uleb128 0x3b
ARM GAS  C:\Users\labadmin\AppData\Local\Temp\ccGL8T0V.s 			page 34


 1577 009f 0B       		.uleb128 0xb
 1578 00a0 49       		.uleb128 0x49
 1579 00a1 13       		.uleb128 0x13
 1580 00a2 02       		.uleb128 0x2
 1581 00a3 18       		.uleb128 0x18
 1582 00a4 00       		.byte	0
 1583 00a5 00       		.byte	0
 1584 00a6 0B       		.uleb128 0xb
 1585 00a7 01       		.uleb128 0x1
 1586 00a8 01       		.byte	0x1
 1587 00a9 49       		.uleb128 0x49
 1588 00aa 13       		.uleb128 0x13
 1589 00ab 01       		.uleb128 0x1
 1590 00ac 13       		.uleb128 0x13
 1591 00ad 00       		.byte	0
 1592 00ae 00       		.byte	0
 1593 00af 0C       		.uleb128 0xc
 1594 00b0 21       		.uleb128 0x21
 1595 00b1 00       		.byte	0
 1596 00b2 49       		.uleb128 0x49
 1597 00b3 13       		.uleb128 0x13
 1598 00b4 2F       		.uleb128 0x2f
 1599 00b5 0B       		.uleb128 0xb
 1600 00b6 00       		.byte	0
 1601 00b7 00       		.byte	0
 1602 00b8 0D       		.uleb128 0xd
 1603 00b9 34       		.uleb128 0x34
 1604 00ba 00       		.byte	0
 1605 00bb 03       		.uleb128 0x3
 1606 00bc 0E       		.uleb128 0xe
 1607 00bd 3A       		.uleb128 0x3a
 1608 00be 0B       		.uleb128 0xb
 1609 00bf 3B       		.uleb128 0x3b
 1610 00c0 05       		.uleb128 0x5
 1611 00c1 49       		.uleb128 0x49
 1612 00c2 13       		.uleb128 0x13
 1613 00c3 3F       		.uleb128 0x3f
 1614 00c4 19       		.uleb128 0x19
 1615 00c5 3C       		.uleb128 0x3c
 1616 00c6 19       		.uleb128 0x19
 1617 00c7 00       		.byte	0
 1618 00c8 00       		.byte	0
 1619 00c9 0E       		.uleb128 0xe
 1620 00ca 35       		.uleb128 0x35
 1621 00cb 00       		.byte	0
 1622 00cc 49       		.uleb128 0x49
 1623 00cd 13       		.uleb128 0x13
 1624 00ce 00       		.byte	0
 1625 00cf 00       		.byte	0
 1626 00d0 0F       		.uleb128 0xf
 1627 00d1 0F       		.uleb128 0xf
 1628 00d2 00       		.byte	0
 1629 00d3 0B       		.uleb128 0xb
 1630 00d4 0B       		.uleb128 0xb
 1631 00d5 49       		.uleb128 0x49
 1632 00d6 13       		.uleb128 0x13
 1633 00d7 00       		.byte	0
ARM GAS  C:\Users\labadmin\AppData\Local\Temp\ccGL8T0V.s 			page 35


 1634 00d8 00       		.byte	0
 1635 00d9 10       		.uleb128 0x10
 1636 00da 34       		.uleb128 0x34
 1637 00db 00       		.byte	0
 1638 00dc 03       		.uleb128 0x3
 1639 00dd 0E       		.uleb128 0xe
 1640 00de 3A       		.uleb128 0x3a
 1641 00df 0B       		.uleb128 0xb
 1642 00e0 3B       		.uleb128 0x3b
 1643 00e1 0B       		.uleb128 0xb
 1644 00e2 49       		.uleb128 0x49
 1645 00e3 13       		.uleb128 0x13
 1646 00e4 3F       		.uleb128 0x3f
 1647 00e5 19       		.uleb128 0x19
 1648 00e6 02       		.uleb128 0x2
 1649 00e7 18       		.uleb128 0x18
 1650 00e8 00       		.byte	0
 1651 00e9 00       		.byte	0
 1652 00ea 00       		.byte	0
 1653              		.section	.debug_aranges,"",%progbits
 1654 0000 44000000 		.4byte	0x44
 1655 0004 0200     		.2byte	0x2
 1656 0006 00000000 		.4byte	.Ldebug_info0
 1657 000a 04       		.byte	0x4
 1658 000b 00       		.byte	0
 1659 000c 0000     		.2byte	0
 1660 000e 0000     		.2byte	0
 1661 0010 00000000 		.4byte	.LFB63
 1662 0014 B8000000 		.4byte	.LFE63-.LFB63
 1663 0018 00000000 		.4byte	.LFB64
 1664 001c B8000000 		.4byte	.LFE64-.LFB64
 1665 0020 00000000 		.4byte	.LFB65
 1666 0024 B8000000 		.4byte	.LFE65-.LFB65
 1667 0028 00000000 		.4byte	.LFB66
 1668 002c B8000000 		.4byte	.LFE66-.LFB66
 1669 0030 00000000 		.4byte	.LFB67
 1670 0034 5E000000 		.4byte	.LFE67-.LFB67
 1671 0038 00000000 		.4byte	.LFB68
 1672 003c E4010000 		.4byte	.LFE68-.LFB68
 1673 0040 00000000 		.4byte	0
 1674 0044 00000000 		.4byte	0
 1675              		.section	.debug_ranges,"",%progbits
 1676              	.Ldebug_ranges0:
 1677 0000 00000000 		.4byte	.LFB63
 1678 0004 B8000000 		.4byte	.LFE63
 1679 0008 00000000 		.4byte	.LFB64
 1680 000c B8000000 		.4byte	.LFE64
 1681 0010 00000000 		.4byte	.LFB65
 1682 0014 B8000000 		.4byte	.LFE65
 1683 0018 00000000 		.4byte	.LFB66
 1684 001c B8000000 		.4byte	.LFE66
 1685 0020 00000000 		.4byte	.LFB67
 1686 0024 5E000000 		.4byte	.LFE67
 1687 0028 00000000 		.4byte	.LFB68
 1688 002c E4010000 		.4byte	.LFE68
 1689 0030 00000000 		.4byte	0
 1690 0034 00000000 		.4byte	0
ARM GAS  C:\Users\labadmin\AppData\Local\Temp\ccGL8T0V.s 			page 36


 1691              		.section	.debug_line,"",%progbits
 1692              	.Ldebug_line0:
 1693 0000 55020000 		.section	.debug_str,"MS",%progbits,1
 1693      02004701 
 1693      00000201 
 1693      FB0E0D00 
 1693      01010101 
 1694              	.LASF25:
 1695 0000 73746174 		.ascii	"state\000"
 1695      6500
 1696              	.LASF9:
 1697 0006 5F5F696E 		.ascii	"__int32_t\000"
 1697      7433325F 
 1697      7400
 1698              	.LASF29:
 1699 0010 73746F70 		.ascii	"stop\000"
 1699      00
 1700              	.LASF13:
 1701 0015 666C6F61 		.ascii	"float\000"
 1701      7400
 1702              	.LASF0:
 1703 001b 7369676E 		.ascii	"signed char\000"
 1703      65642063 
 1703      68617200 
 1704              	.LASF1:
 1705 0027 756E7369 		.ascii	"unsigned char\000"
 1705      676E6564 
 1705      20636861 
 1705      7200
 1706              	.LASF15:
 1707 0035 63686172 		.ascii	"char8\000"
 1707      3800
 1708              	.LASF5:
 1709 003b 6C6F6E67 		.ascii	"long unsigned int\000"
 1709      20756E73 
 1709      69676E65 
 1709      6420696E 
 1709      7400
 1710              	.LASF3:
 1711 004d 73686F72 		.ascii	"short unsigned int\000"
 1711      7420756E 
 1711      7369676E 
 1711      65642069 
 1711      6E7400
 1712              	.LASF18:
 1713 0060 48616E64 		.ascii	"Handle0\000"
 1713      6C653000 
 1714              	.LASF19:
 1715 0068 48616E64 		.ascii	"Handle1\000"
 1715      6C653100 
 1716              	.LASF20:
 1717 0070 48616E64 		.ascii	"Handle2\000"
 1717      6C653200 
 1718              	.LASF21:
 1719 0078 48616E64 		.ascii	"Handle3\000"
 1719      6C653300 
 1720              	.LASF30:
ARM GAS  C:\Users\labadmin\AppData\Local\Temp\ccGL8T0V.s 			page 37


 1721 0080 474E5520 		.ascii	"GNU C 4.9.3 20150303 (release) [ARM/embedded-4_9-br"
 1721      4320342E 
 1721      392E3320 
 1721      32303135 
 1721      30333033 
 1722 00b3 616E6368 		.ascii	"anch revision 221220] -mcpu=cortex-m3 -mthumb -g -O"
 1722      20726576 
 1722      6973696F 
 1722      6E203232 
 1722      31323230 
 1723 00e6 30202D66 		.ascii	"0 -ffunction-sections -ffat-lto-objects\000"
 1723      66756E63 
 1723      74696F6E 
 1723      2D736563 
 1723      74696F6E 
 1724              	.LASF14:
 1725 010e 646F7562 		.ascii	"double\000"
 1725      6C6500
 1726              	.LASF33:
 1727 0115 6D61696E 		.ascii	"main\000"
 1727      00
 1728              	.LASF12:
 1729 011a 75696E74 		.ascii	"uint16\000"
 1729      313600
 1730              	.LASF27:
 1731 0121 49544D5F 		.ascii	"ITM_RxBuffer\000"
 1731      52784275 
 1731      66666572 
 1731      00
 1732              	.LASF8:
 1733 012e 756E7369 		.ascii	"unsigned int\000"
 1733      676E6564 
 1733      20696E74 
 1733      00
 1734              	.LASF7:
 1735 013b 6C6F6E67 		.ascii	"long long unsigned int\000"
 1735      206C6F6E 
 1735      6720756E 
 1735      7369676E 
 1735      65642069 
 1736              	.LASF10:
 1737 0152 696E7433 		.ascii	"int32_t\000"
 1737      325F7400 
 1738              	.LASF17:
 1739 015a 73697A65 		.ascii	"sizetype\000"
 1739      74797065 
 1739      00
 1740              	.LASF6:
 1741 0163 6C6F6E67 		.ascii	"long long int\000"
 1741      206C6F6E 
 1741      6720696E 
 1741      7400
 1742              	.LASF31:
 1743 0171 6D61696E 		.ascii	"main.c\000"
 1743      2E6300
 1744              	.LASF16:
 1745 0178 63686172 		.ascii	"char\000"
ARM GAS  C:\Users\labadmin\AppData\Local\Temp\ccGL8T0V.s 			page 38


 1745      00
 1746              	.LASF23:
 1747 017d 636F756E 		.ascii	"count\000"
 1747      7400
 1748              	.LASF2:
 1749 0183 73686F72 		.ascii	"short int\000"
 1749      7420696E 
 1749      7400
 1750              	.LASF24:
 1751 018d 62756666 		.ascii	"buffer\000"
 1751      657200
 1752              	.LASF11:
 1753 0194 75696E74 		.ascii	"uint8\000"
 1753      3800
 1754              	.LASF4:
 1755 019a 6C6F6E67 		.ascii	"long int\000"
 1755      20696E74 
 1755      00
 1756              	.LASF32:
 1757 01a3 433A5C55 		.ascii	"C:\\Users\\labadmin\\Documents\\GitHub\\CY8CKITDAC\\"
 1757      73657273 
 1757      5C6C6162 
 1757      61646D69 
 1757      6E5C446F 
 1758 01d1 55534246 		.ascii	"USBFS_UART01.cydsn\000"
 1758      535F5541 
 1758      52543031 
 1758      2E637964 
 1758      736E00
 1759              	.LASF28:
 1760 01e4 70617269 		.ascii	"parity\000"
 1760      747900
 1761              	.LASF22:
 1762 01eb 50726F63 		.ascii	"ProcessMessage\000"
 1762      6573734D 
 1762      65737361 
 1762      676500
 1763              	.LASF26:
 1764 01fa 6C696E65 		.ascii	"lineStr\000"
 1764      53747200 
 1765              		.ident	"GCC: (GNU Tools for ARM Embedded Processors) 4.9.3 20150303 (release) [ARM/embedded-4_9-br
